---
triple:          'arm64-apple-darwin'
binary-path:     "/Users/yunsukmin/Desktop/2학년_2학기/오토마타이론/Automata/HW1/main1"
relocations:
  - { offsetInCU: 0x72A9, offset: 0x72A9, size: 0x8, addend: 0x0, symName: __ZNSt3__124__put_character_sequenceB7v160006IcNS_11char_traitsIcEEEERNS_13basic_ostreamIT_T0_EES7_PKS4_m, symObjAddr: 0xBEB8, symBinAddr: 0x10000DDD0, symSize: 0x1F4 }
  - { offsetInCU: 0xAF04, offset: 0xAF04, size: 0x8, addend: 0x0, symName: __ZNSt3__1lsB7v160006INS_11char_traitsIcEEEERNS_13basic_ostreamIcT_EES6_PKc, symObjAddr: 0x1314, symBinAddr: 0x10000322C, symSize: 0x48 }
  - { offsetInCU: 0xAF4A, offset: 0xAF4A, size: 0x8, addend: 0x0, symName: __ZNSt3__14endlB7v160006IcNS_11char_traitsIcEEEERNS_13basic_ostreamIT_T0_EES7_, symObjAddr: 0x13B0, symBinAddr: 0x1000032C8, symSize: 0x58 }
  - { offsetInCU: 0xAF8A, offset: 0xAF8A, size: 0x8, addend: 0x0, symName: __ZNSt3__1neB7v160006IPK10TransitionEEbRKNS_11__wrap_iterIT_EES8_, symObjAddr: 0x1468, symBinAddr: 0x100003380, symSize: 0x34 }
  - { offsetInCU: 0xAFCD, offset: 0xAFCD, size: 0x8, addend: 0x0, symName: __ZNSt3__1lsB7v160006INS_11char_traitsIcEEEERNS_13basic_ostreamIcT_EES6_c, symObjAddr: 0x14B4, symBinAddr: 0x1000033CC, symSize: 0x34 }
  - { offsetInCU: 0xB013, offset: 0xB013, size: 0x8, addend: 0x0, symName: __ZNSt3__1rsB7v160006IcNS_11char_traitsIcEENS_9allocatorIcEEEERNS_13basic_istreamIT_T0_EES9_RNS_12basic_stringIS6_S7_T1_EE, symObjAddr: 0x1640, symBinAddr: 0x100003558, symSize: 0x314 }
  - { offsetInCU: 0xB0E0, offset: 0xB0E0, size: 0x8, addend: 0x0, symName: __ZNSt3__1neB7v160006ERKNS_16__deque_iteratorIcPcRcPS1_lLl4096EEES6_, symObjAddr: 0x1E1C, symBinAddr: 0x100003D34, symSize: 0x34 }
  - { offsetInCU: 0xB11D, offset: 0xB11D, size: 0x8, addend: 0x0, symName: __ZNSt3__1eqB7v160006ERKNS_16__deque_iteratorIcPcRcPS1_lLl4096EEES6_, symObjAddr: 0x20A8, symBinAddr: 0x100003FC0, symSize: 0x30 }
  - { offsetInCU: 0xB15A, offset: 0xB15A, size: 0x8, addend: 0x0, symName: __ZNSt3__130__libcpp_is_constant_evaluatedB7v160006Ev, symObjAddr: 0x21E0, symBinAddr: 0x1000040F8, symSize: 0xC }
  - { offsetInCU: 0xB177, offset: 0xB177, size: 0x8, addend: 0x0, symName: __ZNSt3__119__libcpp_deallocateB7v160006EPvmm, symObjAddr: 0x21EC, symBinAddr: 0x100004104, symSize: 0x30 }
  - { offsetInCU: 0xB1BF, offset: 0xB1BF, size: 0x8, addend: 0x0, symName: __ZNSt3__127__do_deallocate_handle_sizeB7v160006IJEEEvPvmDpT_, symObjAddr: 0x221C, symBinAddr: 0x100004134, symSize: 0x28 }
  - { offsetInCU: 0xB1FD, offset: 0xB1FD, size: 0x8, addend: 0x0, symName: __ZNSt3__124__libcpp_operator_deleteB7v160006IJPvEEEvDpT_, symObjAddr: 0x2244, symBinAddr: 0x10000415C, symSize: 0x24 }
  - { offsetInCU: 0xB232, offset: 0xB232, size: 0x8, addend: 0x0, symName: __ZNSt3__112__to_addressB7v160006IPcEEPT_S3_, symObjAddr: 0x24D0, symBinAddr: 0x1000043E8, symSize: 0x14 }
  - { offsetInCU: 0xB267, offset: 0xB267, size: 0x8, addend: 0x0, symName: __ZNSt3__119__debug_db_insert_cB7v160006INS_6vectorI10TransitionNS_9allocatorIS2_EEEEEEvPT_, symObjAddr: 0x2774, symBinAddr: 0x10000468C, symSize: 0x10 }
  - { offsetInCU: 0xB298, offset: 0xB298, size: 0x8, addend: 0x0, symName: __ZNSt3__112__to_addressB7v160006I10TransitionEEPT_S3_, symObjAddr: 0x2B6C, symBinAddr: 0x100004A84, symSize: 0x14 }
  - { offsetInCU: 0xB2CD, offset: 0xB2CD, size: 0x8, addend: 0x0, symName: __ZNSt3__13maxB7v160006ImEERKT_S3_S3_, symObjAddr: 0x2F8C, symBinAddr: 0x100004EA4, symSize: 0x2C }
  - { offsetInCU: 0xB310, offset: 0xB310, size: 0x8, addend: 0x0, symName: __ZNSt3__13minB7v160006ImEERKT_S3_S3_, symObjAddr: 0x2FB8, symBinAddr: 0x100004ED0, symSize: 0x2C }
  - { offsetInCU: 0xB554, offset: 0xB554, size: 0x8, addend: 0x0, symName: __ZNSt3__13minB7v160006ImNS_6__lessImmEEEERKT_S5_S5_T0_, symObjAddr: 0x3044, symBinAddr: 0x100004F5C, symSize: 0x54 }
  - { offsetInCU: 0xB5E9, offset: 0xB5E9, size: 0x8, addend: 0x0, symName: __ZNSt3__120__throw_length_errorB7v160006EPKc, symObjAddr: 0x3124, symBinAddr: 0x10000503C, symSize: 0x64 }
  - { offsetInCU: 0xB611, offset: 0xB611, size: 0x8, addend: 0x0, symName: __ZNSt3__13maxB7v160006ImNS_6__lessImmEEEERKT_S5_S5_T0_, symObjAddr: 0x3268, symBinAddr: 0x100005180, symSize: 0x54 }
  - { offsetInCU: 0xB66B, offset: 0xB66B, size: 0x8, addend: 0x0, symName: __ZNSt3__119__allocate_at_leastB7v160006INS_9allocatorI10TransitionEEEENS_19__allocation_resultINS_16allocator_traitsIT_E7pointerEEERS6_m, symObjAddr: 0x33D8, symBinAddr: 0x1000052F0, symSize: 0x40 }
  - { offsetInCU: 0xB6AE, offset: 0xB6AE, size: 0x8, addend: 0x0, symName: __ZNSt3__117__libcpp_allocateB7v160006Emm, symObjAddr: 0x3590, symBinAddr: 0x1000054A8, symSize: 0x28 }
  - { offsetInCU: 0xB6EB, offset: 0xB6EB, size: 0x8, addend: 0x0, symName: __ZNSt3__121__libcpp_operator_newB7v160006IJmEEEPvDpT_, symObjAddr: 0x35B8, symBinAddr: 0x1000054D0, symSize: 0x24 }
  - { offsetInCU: 0xB724, offset: 0xB724, size: 0x8, addend: 0x0, symName: __ZNSt3__142__uninitialized_allocator_move_if_noexceptB7v160006INS_9allocatorI10TransitionEENS_16reverse_iteratorIPS2_EES6_S2_vEET1_RT_T0_SA_S7_, symObjAddr: 0x3714, symBinAddr: 0x10000562C, symSize: 0xE8 }
  - { offsetInCU: 0xB7A1, offset: 0xB7A1, size: 0x8, addend: 0x0, symName: __ZNSt3__14swapB7v160006IP10TransitionEEvRT_S4_, symObjAddr: 0x3848, symBinAddr: 0x100005760, symSize: 0x3C }
  - { offsetInCU: 0xB7F2, offset: 0xB7F2, size: 0x8, addend: 0x0, symName: __ZNSt3__125__debug_db_invalidate_allB7v160006INS_6vectorI10TransitionNS_9allocatorIS2_EEEEEEvPT_, symObjAddr: 0x394C, symBinAddr: 0x100005864, symSize: 0x10 }
  - { offsetInCU: 0xB823, offset: 0xB823, size: 0x8, addend: 0x0, symName: __ZNSt3__1neB7v160006IP10TransitionS2_EEbRKNS_16reverse_iteratorIT_EERKNS3_IT0_EE, symObjAddr: 0x39A4, symBinAddr: 0x1000058BC, symSize: 0x48 }
  - { offsetInCU: 0xB894, offset: 0xB894, size: 0x8, addend: 0x0, symName: __ZNSt3__114__construct_atB7v160006I10TransitionJS1_EPS1_EEPT_S4_DpOT0_, symObjAddr: 0x39EC, symBinAddr: 0x100005904, symSize: 0x34 }
  - { offsetInCU: 0xB904, offset: 0xB904, size: 0x8, addend: 0x0, symName: __ZNSt3__112__to_addressB7v160006INS_16reverse_iteratorIP10TransitionEEvEENS_5decayIDTclsr19__to_address_helperIT_EE6__callclsr3stdE7declvalIRKS6_EEEEE4typeES8_, symObjAddr: 0x3A20, symBinAddr: 0x100005938, symSize: 0x24 }
  - { offsetInCU: 0xB93A, offset: 0xB93A, size: 0x8, addend: 0x0, symName: __ZNSt3__14moveB7v160006INS_16reverse_iteratorIP10TransitionEES4_EET0_T_S6_S5_, symObjAddr: 0x3A8C, symBinAddr: 0x1000059A4, symSize: 0x78 }
  - { offsetInCU: 0xB9BD, offset: 0xB9BD, size: 0x8, addend: 0x0, symName: __ZNSt3__16__moveB7v160006INS_17_ClassicAlgPolicyENS_16reverse_iteratorIP10TransitionEES5_S5_EENS_4pairIT0_T2_EES7_T1_S8_, symObjAddr: 0x3B74, symBinAddr: 0x100005A8C, symSize: 0x64 }
  - { offsetInCU: 0xBA29, offset: 0xBA29, size: 0x8, addend: 0x0, symName: __ZNSt3__123__dispatch_copy_or_moveB7v160006INS_17_ClassicAlgPolicyENS_11__move_loopIS1_EENS_14__move_trivialENS_16reverse_iteratorIP10TransitionEES8_S8_EENS_4pairIT2_T4_EESA_T3_SB_, symObjAddr: 0x3BD8, symBinAddr: 0x100005AF0, symSize: 0x7C }
  - { offsetInCU: 0xBAA7, offset: 0xBAA7, size: 0x8, addend: 0x0, symName: __ZNSt3__121__unwrap_and_dispatchB7v160006INS_10__overloadINS_11__move_loopINS_17_ClassicAlgPolicyEEENS_14__move_trivialEEENS_16reverse_iteratorIP10TransitionEESA_SA_Li0EEENS_4pairIT0_T2_EESC_T1_SD_, symObjAddr: 0x3C54, symBinAddr: 0x100005B6C, symSize: 0x12C }
  - { offsetInCU: 0xBB37, offset: 0xBB37, size: 0x8, addend: 0x0, symName: __ZNSt3__114__unwrap_rangeB7v160006INS_16reverse_iteratorIP10TransitionEES4_EENS_4pairIT0_S6_EET_S8_, symObjAddr: 0x3D80, symBinAddr: 0x100005C98, symSize: 0x84 }
  - { offsetInCU: 0xBC8B, offset: 0xBC8B, size: 0x8, addend: 0x0, symName: __ZNSt3__113__unwrap_iterB7v160006INS_16reverse_iteratorIP10TransitionEENS_18__unwrap_iter_implIS4_Lb0EEELi0EEEDTclsrT0_8__unwrapclsr3stdE7declvalIT_EEEES8_, symObjAddr: 0x3EAC, symBinAddr: 0x100005DC4, symSize: 0x44 }
  - { offsetInCU: 0xBCCF, offset: 0xBCCF, size: 0x8, addend: 0x0, symName: __ZNSt3__19make_pairB7v160006INS_16reverse_iteratorIP10TransitionEES4_EENS_4pairINS_18__unwrap_ref_decayIT_E4typeENS6_IT0_E4typeEEEOS7_OSA_, symObjAddr: 0x3EF0, symBinAddr: 0x100005E08, symSize: 0x38 }
  - { offsetInCU: 0xBD1E, offset: 0xBD1E, size: 0x8, addend: 0x0, symName: __ZNSt3__114__rewrap_rangeB7v160006INS_16reverse_iteratorIP10TransitionEES4_EET_S5_T0_, symObjAddr: 0x3F28, symBinAddr: 0x100005E40, symSize: 0x5C }
  - { offsetInCU: 0xBD6A, offset: 0xBD6A, size: 0x8, addend: 0x0, symName: __ZNSt3__113__rewrap_iterB7v160006INS_16reverse_iteratorIP10TransitionEES4_NS_18__unwrap_iter_implIS4_Lb0EEEEET_S7_T0_, symObjAddr: 0x3F84, symBinAddr: 0x100005E9C, symSize: 0x88 }
  - { offsetInCU: 0xBE71, offset: 0xBE71, size: 0x8, addend: 0x0, symName: __ZNSt3__118__debug_db_erase_cB7v160006INS_6vectorI10TransitionNS_9allocatorIS2_EEEEEEvPT_, symObjAddr: 0x45BC, symBinAddr: 0x1000064D4, symSize: 0x10 }
  - { offsetInCU: 0xBEA2, offset: 0xBEA2, size: 0x8, addend: 0x0, symName: __ZNSt3__122__make_exception_guardB7v160006INS_6vectorI10TransitionNS_9allocatorIS2_EEE16__destroy_vectorEEENS_28__exception_guard_exceptionsIT_EES8_, symObjAddr: 0x487C, symBinAddr: 0x100006794, symSize: 0x40 }
  - { offsetInCU: 0xBED7, offset: 0xBED7, size: 0x8, addend: 0x0, symName: __ZNSt3__130__uninitialized_allocator_copyB7v160006INS_9allocatorI10TransitionEEPS2_S4_S4_EET2_RT_T0_T1_S5_, symObjAddr: 0x4B00, symBinAddr: 0x100006A18, symSize: 0xFC }
  - { offsetInCU: 0xBF75, offset: 0xBF75, size: 0x8, addend: 0x0, symName: __ZNSt3__122__make_exception_guardB7v160006INS_29_AllocatorDestroyRangeReverseINS_9allocatorI10TransitionEEPS3_EEEENS_28__exception_guard_exceptionsIT_EES8_, symObjAddr: 0x4BFC, symBinAddr: 0x100006B14, symSize: 0x4C }
  - { offsetInCU: 0xBFAB, offset: 0xBFAB, size: 0x8, addend: 0x0, symName: __ZNSt3__119__allocator_destroyB7v160006INS_9allocatorI10TransitionEENS_16reverse_iteratorIPS2_EES6_EEvRT_T0_T1_, symObjAddr: 0x4E84, symBinAddr: 0x100006D9C, symSize: 0x70 }
  - { offsetInCU: 0xC00E, offset: 0xC00E, size: 0x8, addend: 0x0, symName: __ZNSt3__1neB7v160006IP10TransitionEEbRKNS_11__wrap_iterIT_EES7_, symObjAddr: 0x4F9C, symBinAddr: 0x100006EB4, symSize: 0x34 }
  - { offsetInCU: 0xC051, offset: 0xC051, size: 0x8, addend: 0x0, symName: __ZNSt3__1eqB7v160006IP10TransitionEEbRKNS_11__wrap_iterIT_EES7_, symObjAddr: 0x509C, symBinAddr: 0x100006FB4, symSize: 0x48 }
  - { offsetInCU: 0xC094, offset: 0xC094, size: 0x8, addend: 0x0, symName: __ZNSt3__1neB7v160006ERKNS_16__deque_iteratorI3NFAPS1_RS1_PS2_lLl102EEES7_, symObjAddr: 0x55D4, symBinAddr: 0x1000074EC, symSize: 0x34 }
  - { offsetInCU: 0xC0D1, offset: 0xC0D1, size: 0x8, addend: 0x0, symName: __ZNSt3__1eqB7v160006ERKNS_16__deque_iteratorI3NFAPS1_RS1_PS2_lLl102EEES7_, symObjAddr: 0x5854, symBinAddr: 0x10000776C, symSize: 0x30 }
  - { offsetInCU: 0xC10E, offset: 0xC10E, size: 0x8, addend: 0x0, symName: __ZNSt3__112__to_addressB7v160006IP3NFAEEPT_S4_, symObjAddr: 0x5BF8, symBinAddr: 0x100007B10, symSize: 0x14 }
  - { offsetInCU: 0xC143, offset: 0xC143, size: 0x8, addend: 0x0, symName: __ZNSt3__119__debug_db_insert_cB7v160006INS_12basic_stringIcNS_11char_traitsIcEENS_9allocatorIcEEEEEEvPT_, symObjAddr: 0x5DA8, symBinAddr: 0x100007CC0, symSize: 0x10 }
  - { offsetInCU: 0xC630, offset: 0xC630, size: 0x8, addend: 0x0, symName: __ZNSt3__14swapB7v160006IPPcEEvRT_S4_, symObjAddr: 0x7990, symBinAddr: 0x1000098A8, symSize: 0x3C }
  - { offsetInCU: 0xC681, offset: 0xC681, size: 0x8, addend: 0x0, symName: __ZNSt3__14moveB7v160006IPPcS2_EET0_T_S4_S3_, symObjAddr: 0x7A74, symBinAddr: 0x10000998C, symSize: 0x40 }
  - { offsetInCU: 0xC6F7, offset: 0xC6F7, size: 0x8, addend: 0x0, symName: __ZNSt3__16__moveB7v160006INS_17_ClassicAlgPolicyEPPcS3_S3_EENS_4pairIT0_T2_EES5_T1_S6_, symObjAddr: 0x7C20, symBinAddr: 0x100009B38, symSize: 0x44 }
  - { offsetInCU: 0xC763, offset: 0xC763, size: 0x8, addend: 0x0, symName: __ZNSt3__123__dispatch_copy_or_moveB7v160006INS_17_ClassicAlgPolicyENS_11__move_loopIS1_EENS_14__move_trivialEPPcS6_S6_EENS_4pairIT2_T4_EES8_T3_S9_, symObjAddr: 0x7C64, symBinAddr: 0x100009B7C, symSize: 0x54 }
  - { offsetInCU: 0xC7E1, offset: 0xC7E1, size: 0x8, addend: 0x0, symName: __ZNSt3__121__unwrap_and_dispatchB7v160006INS_10__overloadINS_11__move_loopINS_17_ClassicAlgPolicyEEENS_14__move_trivialEEEPPcS8_S8_Li0EEENS_4pairIT0_T2_EESA_T1_SB_, symObjAddr: 0x7CB8, symBinAddr: 0x100009BD0, symSize: 0xB4 }
  - { offsetInCU: 0xC86F, offset: 0xC86F, size: 0x8, addend: 0x0, symName: __ZNSt3__114__unwrap_rangeB7v160006IPPcS2_EENS_4pairIT0_S4_EET_S6_, symObjAddr: 0x7D6C, symBinAddr: 0x100009C84, symSize: 0x60 }
  - { offsetInCU: 0xC9EA, offset: 0xC9EA, size: 0x8, addend: 0x0, symName: __ZNSt3__113__unwrap_iterB7v160006IPPcNS_18__unwrap_iter_implIS2_Lb1EEELi0EEEDTclsrT0_8__unwrapclsr3stdE7declvalIT_EEEES6_, symObjAddr: 0x7E14, symBinAddr: 0x100009D2C, symSize: 0x24 }
  - { offsetInCU: 0xCA2E, offset: 0xCA2E, size: 0x8, addend: 0x0, symName: __ZNSt3__19make_pairB7v160006IPPcS2_EENS_4pairINS_18__unwrap_ref_decayIT_E4typeENS4_IT0_E4typeEEEOS5_OS8_, symObjAddr: 0x7E38, symBinAddr: 0x100009D50, symSize: 0x38 }
  - { offsetInCU: 0xCA7D, offset: 0xCA7D, size: 0x8, addend: 0x0, symName: __ZNSt3__114__rewrap_rangeB7v160006IPPcS2_EET_S3_T0_, symObjAddr: 0x7E70, symBinAddr: 0x100009D88, symSize: 0x2C }
  - { offsetInCU: 0xCAC9, offset: 0xCAC9, size: 0x8, addend: 0x0, symName: __ZNSt3__113__rewrap_iterB7v160006IPPcS2_NS_18__unwrap_iter_implIS2_Lb1EEEEET_S5_T0_, symObjAddr: 0x7E9C, symBinAddr: 0x100009DB4, symSize: 0x50 }
  - { offsetInCU: 0xCB1E, offset: 0xCB1E, size: 0x8, addend: 0x0, symName: __ZNSt3__119__copy_trivial_implB7v160006IPcS1_EENS_4pairIPT_PT0_EES4_S4_S6_, symObjAddr: 0x7EEC, symBinAddr: 0x100009E04, symSize: 0x84 }
  - { offsetInCU: 0xCB86, offset: 0xCB86, size: 0x8, addend: 0x0, symName: __ZNSt3__19make_pairB7v160006IRPPcS2_EENS_4pairINS_18__unwrap_ref_decayIT_E4typeENS5_IT0_E4typeEEEOS6_OS9_, symObjAddr: 0x7F70, symBinAddr: 0x100009E88, symSize: 0x38 }
  - { offsetInCU: 0xCC28, offset: 0xCC28, size: 0x8, addend: 0x0, symName: __ZNSt3__18distanceB7v160006INS_13move_iteratorIPPcEEEENS_15iterator_traitsIT_E15difference_typeES6_S6_, symObjAddr: 0x808C, symBinAddr: 0x100009FA4, symSize: 0x3C }
  - { offsetInCU: 0xCC6B, offset: 0xCC6B, size: 0x8, addend: 0x0, symName: __ZNSt3__110__distanceB7v160006INS_13move_iteratorIPPcEEEENS_15iterator_traitsIT_E15difference_typeES6_S6_NS_26random_access_iterator_tagE, symObjAddr: 0x81C4, symBinAddr: 0x10000A0DC, symSize: 0x30 }
  - { offsetInCU: 0xCCB8, offset: 0xCCB8, size: 0x8, addend: 0x0, symName: __ZNSt3__1miB7v160006IPPcS2_EENS_13move_iteratorIT_E15difference_typeERKS5_RKNS3_IT0_EE, symObjAddr: 0x81F4, symBinAddr: 0x10000A10C, symSize: 0x48 }
  - { offsetInCU: 0xCD07, offset: 0xCD07, size: 0x8, addend: 0x0, symName: __ZNSt3__113move_backwardB7v160006IPPcS2_EET0_T_S4_S3_, symObjAddr: 0x8368, symBinAddr: 0x10000A280, symSize: 0x40 }
  - { offsetInCU: 0xCD61, offset: 0xCD61, size: 0x8, addend: 0x0, symName: __ZNSt3__115__move_backwardB7v160006INS_17_ClassicAlgPolicyEPPcS3_S3_EENS_4pairIT0_T2_EES5_T1_S6_, symObjAddr: 0x83A8, symBinAddr: 0x10000A2C0, symSize: 0x44 }
  - { offsetInCU: 0xCDCD, offset: 0xCDCD, size: 0x8, addend: 0x0, symName: __ZNSt3__123__dispatch_copy_or_moveB7v160006INS_17_ClassicAlgPolicyENS_20__move_backward_loopIS1_EENS_23__move_backward_trivialEPPcS6_S6_EENS_4pairIT2_T4_EES8_T3_S9_, symObjAddr: 0x83EC, symBinAddr: 0x10000A304, symSize: 0x54 }
  - { offsetInCU: 0xCE4B, offset: 0xCE4B, size: 0x8, addend: 0x0, symName: __ZNSt3__121__unwrap_and_dispatchB7v160006INS_10__overloadINS_20__move_backward_loopINS_17_ClassicAlgPolicyEEENS_23__move_backward_trivialEEEPPcS8_S8_Li0EEENS_4pairIT0_T2_EESA_T1_SB_, symObjAddr: 0x8440, symBinAddr: 0x10000A358, symSize: 0xB4 }
  - { offsetInCU: 0xCF5B, offset: 0xCF5B, size: 0x8, addend: 0x0, symName: __ZNSt3__128__copy_backward_trivial_implB7v160006IPcS1_EENS_4pairIPT_PT0_EES4_S4_S6_, symObjAddr: 0x853C, symBinAddr: 0x10000A454, symSize: 0x94 }
  - { offsetInCU: 0xCFC3, offset: 0xCFC3, size: 0x8, addend: 0x0, symName: __ZNSt3__19make_pairB7v160006IRPPcS3_EENS_4pairINS_18__unwrap_ref_decayIT_E4typeENS5_IT0_E4typeEEEOS6_OS9_, symObjAddr: 0x85D0, symBinAddr: 0x10000A4E8, symSize: 0x38 }
  - { offsetInCU: 0xD012, offset: 0xD012, size: 0x8, addend: 0x0, symName: __ZNSt3__119__allocate_at_leastB7v160006INS_9allocatorIPcEEEENS_19__allocation_resultINS_16allocator_traitsIT_E7pointerEEERS6_m, symObjAddr: 0x8718, symBinAddr: 0x10000A630, symSize: 0x40 }
  - { offsetInCU: 0xD055, offset: 0xD055, size: 0x8, addend: 0x0, symName: __ZNSt3__112__to_addressB7v160006IcEEPT_S2_, symObjAddr: 0x8F20, symBinAddr: 0x10000AE38, symSize: 0x14 }
  - { offsetInCU: 0xD08A, offset: 0xD08A, size: 0x8, addend: 0x0, symName: __ZNSt3__112__to_addressB7v160006IKcEEPT_S3_, symObjAddr: 0x93CC, symBinAddr: 0x10000B2E4, symSize: 0x14 }
  - { offsetInCU: 0xD57B, offset: 0xD57B, size: 0x8, addend: 0x0, symName: __ZNSt3__14swapB7v160006IPP3NFAEEvRT_S5_, symObjAddr: 0xA724, symBinAddr: 0x10000C63C, symSize: 0x3C }
  - { offsetInCU: 0xD5CC, offset: 0xD5CC, size: 0x8, addend: 0x0, symName: __ZNSt3__14moveB7v160006IPP3NFAS3_EET0_T_S5_S4_, symObjAddr: 0xA808, symBinAddr: 0x10000C720, symSize: 0x40 }
  - { offsetInCU: 0xD626, offset: 0xD626, size: 0x8, addend: 0x0, symName: __ZNSt3__16__moveB7v160006INS_17_ClassicAlgPolicyEPP3NFAS4_S4_EENS_4pairIT0_T2_EES6_T1_S7_, symObjAddr: 0xA9B4, symBinAddr: 0x10000C8CC, symSize: 0x44 }
  - { offsetInCU: 0xD692, offset: 0xD692, size: 0x8, addend: 0x0, symName: __ZNSt3__123__dispatch_copy_or_moveB7v160006INS_17_ClassicAlgPolicyENS_11__move_loopIS1_EENS_14__move_trivialEPP3NFAS7_S7_EENS_4pairIT2_T4_EES9_T3_SA_, symObjAddr: 0xA9F8, symBinAddr: 0x10000C910, symSize: 0x54 }
  - { offsetInCU: 0xD710, offset: 0xD710, size: 0x8, addend: 0x0, symName: __ZNSt3__121__unwrap_and_dispatchB7v160006INS_10__overloadINS_11__move_loopINS_17_ClassicAlgPolicyEEENS_14__move_trivialEEEPP3NFAS9_S9_Li0EEENS_4pairIT0_T2_EESB_T1_SC_, symObjAddr: 0xAA4C, symBinAddr: 0x10000C964, symSize: 0xB4 }
  - { offsetInCU: 0xD79E, offset: 0xD79E, size: 0x8, addend: 0x0, symName: __ZNSt3__114__unwrap_rangeB7v160006IPP3NFAS3_EENS_4pairIT0_S5_EET_S7_, symObjAddr: 0xAB00, symBinAddr: 0x10000CA18, symSize: 0x60 }
  - { offsetInCU: 0xD897, offset: 0xD897, size: 0x8, addend: 0x0, symName: __ZNSt3__113__unwrap_iterB7v160006IPP3NFANS_18__unwrap_iter_implIS3_Lb1EEELi0EEEDTclsrT0_8__unwrapclsr3stdE7declvalIT_EEEES7_, symObjAddr: 0xABA8, symBinAddr: 0x10000CAC0, symSize: 0x24 }
  - { offsetInCU: 0xD8DB, offset: 0xD8DB, size: 0x8, addend: 0x0, symName: __ZNSt3__19make_pairB7v160006IPP3NFAS3_EENS_4pairINS_18__unwrap_ref_decayIT_E4typeENS5_IT0_E4typeEEEOS6_OS9_, symObjAddr: 0xABCC, symBinAddr: 0x10000CAE4, symSize: 0x38 }
  - { offsetInCU: 0xD92A, offset: 0xD92A, size: 0x8, addend: 0x0, symName: __ZNSt3__114__rewrap_rangeB7v160006IPP3NFAS3_EET_S4_T0_, symObjAddr: 0xAC04, symBinAddr: 0x10000CB1C, symSize: 0x2C }
  - { offsetInCU: 0xD976, offset: 0xD976, size: 0x8, addend: 0x0, symName: __ZNSt3__113__rewrap_iterB7v160006IPP3NFAS3_NS_18__unwrap_iter_implIS3_Lb1EEEEET_S6_T0_, symObjAddr: 0xAC30, symBinAddr: 0x10000CB48, symSize: 0x50 }
  - { offsetInCU: 0xD9CB, offset: 0xD9CB, size: 0x8, addend: 0x0, symName: __ZNSt3__119__copy_trivial_implB7v160006IP3NFAS2_EENS_4pairIPT_PT0_EES5_S5_S7_, symObjAddr: 0xAC80, symBinAddr: 0x10000CB98, symSize: 0x84 }
  - { offsetInCU: 0xDA33, offset: 0xDA33, size: 0x8, addend: 0x0, symName: __ZNSt3__19make_pairB7v160006IRPP3NFAS3_EENS_4pairINS_18__unwrap_ref_decayIT_E4typeENS6_IT0_E4typeEEEOS7_OSA_, symObjAddr: 0xAD04, symBinAddr: 0x10000CC1C, symSize: 0x38 }
  - { offsetInCU: 0xDAD5, offset: 0xDAD5, size: 0x8, addend: 0x0, symName: __ZNSt3__18distanceB7v160006INS_13move_iteratorIPP3NFAEEEENS_15iterator_traitsIT_E15difference_typeES7_S7_, symObjAddr: 0xAE20, symBinAddr: 0x10000CD38, symSize: 0x3C }
  - { offsetInCU: 0xDB18, offset: 0xDB18, size: 0x8, addend: 0x0, symName: __ZNSt3__110__distanceB7v160006INS_13move_iteratorIPP3NFAEEEENS_15iterator_traitsIT_E15difference_typeES7_S7_NS_26random_access_iterator_tagE, symObjAddr: 0xAF58, symBinAddr: 0x10000CE70, symSize: 0x30 }
  - { offsetInCU: 0xDB65, offset: 0xDB65, size: 0x8, addend: 0x0, symName: __ZNSt3__1miB7v160006IPP3NFAS3_EENS_13move_iteratorIT_E15difference_typeERKS6_RKNS4_IT0_EE, symObjAddr: 0xAF88, symBinAddr: 0x10000CEA0, symSize: 0x48 }
  - { offsetInCU: 0xDBB4, offset: 0xDBB4, size: 0x8, addend: 0x0, symName: __ZNSt3__113move_backwardB7v160006IPP3NFAS3_EET0_T_S5_S4_, symObjAddr: 0xB1C4, symBinAddr: 0x10000D0DC, symSize: 0x40 }
  - { offsetInCU: 0xDC0E, offset: 0xDC0E, size: 0x8, addend: 0x0, symName: __ZNSt3__115__move_backwardB7v160006INS_17_ClassicAlgPolicyEPP3NFAS4_S4_EENS_4pairIT0_T2_EES6_T1_S7_, symObjAddr: 0xB204, symBinAddr: 0x10000D11C, symSize: 0x44 }
  - { offsetInCU: 0xDC7A, offset: 0xDC7A, size: 0x8, addend: 0x0, symName: __ZNSt3__123__dispatch_copy_or_moveB7v160006INS_17_ClassicAlgPolicyENS_20__move_backward_loopIS1_EENS_23__move_backward_trivialEPP3NFAS7_S7_EENS_4pairIT2_T4_EES9_T3_SA_, symObjAddr: 0xB248, symBinAddr: 0x10000D160, symSize: 0x54 }
  - { offsetInCU: 0xDCF8, offset: 0xDCF8, size: 0x8, addend: 0x0, symName: __ZNSt3__121__unwrap_and_dispatchB7v160006INS_10__overloadINS_20__move_backward_loopINS_17_ClassicAlgPolicyEEENS_23__move_backward_trivialEEEPP3NFAS9_S9_Li0EEENS_4pairIT0_T2_EESB_T1_SC_, symObjAddr: 0xB29C, symBinAddr: 0x10000D1B4, symSize: 0xB4 }
  - { offsetInCU: 0xDD86, offset: 0xDD86, size: 0x8, addend: 0x0, symName: __ZNSt3__128__copy_backward_trivial_implB7v160006IP3NFAS2_EENS_4pairIPT_PT0_EES5_S5_S7_, symObjAddr: 0xB398, symBinAddr: 0x10000D2B0, symSize: 0x94 }
  - { offsetInCU: 0xDDEE, offset: 0xDDEE, size: 0x8, addend: 0x0, symName: __ZNSt3__19make_pairB7v160006IRPP3NFAS4_EENS_4pairINS_18__unwrap_ref_decayIT_E4typeENS6_IT0_E4typeEEEOS7_OSA_, symObjAddr: 0xB42C, symBinAddr: 0x10000D344, symSize: 0x38 }
  - { offsetInCU: 0xDE3D, offset: 0xDE3D, size: 0x8, addend: 0x0, symName: __ZNSt3__119__allocate_at_leastB7v160006INS_9allocatorIP3NFAEEEENS_19__allocation_resultINS_16allocator_traitsIT_E7pointerEEERS7_m, symObjAddr: 0xB574, symBinAddr: 0x10000D48C, symSize: 0x40 }
  - { offsetInCU: 0xDE80, offset: 0xDE80, size: 0x8, addend: 0x0, symName: __ZNSt3__112__to_addressB7v160006I3NFAEEPT_S3_, symObjAddr: 0xBD64, symBinAddr: 0x10000DC7C, symSize: 0x14 }
  - { offsetInCU: 0xDEB5, offset: 0xDEB5, size: 0x8, addend: 0x0, symName: __ZNSt3__116__pad_and_outputB7v160006IcNS_11char_traitsIcEEEENS_19ostreambuf_iteratorIT_T0_EES6_PKS4_S8_S8_RNS_8ios_baseES4_, symObjAddr: 0xC110, symBinAddr: 0x10000E028, symSize: 0x248 }
  - { offsetInCU: 0xDF84, offset: 0xDF84, size: 0x8, addend: 0x0, symName: __ZNSt3__19use_facetB7v160006INS_5ctypeIcEEEERKT_RKNS_6localeE, symObjAddr: 0xC6C8, symBinAddr: 0x10000E5E0, symSize: 0x2C }
  - { offsetInCU: 0xE364, offset: 0xE364, size: 0x8, addend: 0x0, symName: __ZNSt3__118__constexpr_strlenB7v160006EPKc, symObjAddr: 0xC760, symBinAddr: 0x10000E678, symSize: 0x24 }
  - { offsetInCU: 0xE390, offset: 0xE390, size: 0x8, addend: 0x0, symName: __ZNSt3__1eqB7v160006IPK10TransitionEEbRKNS_11__wrap_iterIT_EES8_, symObjAddr: 0xC818, symBinAddr: 0x10000E730, symSize: 0x48 }
  - { offsetInCU: 0xE95D, offset: 0xE95D, size: 0x8, addend: 0x0, symName: __ZNSt3__125__debug_db_invalidate_allB7v160006INS_12basic_stringIcNS_11char_traitsIcEENS_9allocatorIcEEEEEEvPT_, symObjAddr: 0xCBE0, symBinAddr: 0x10000EAF8, symSize: 0x10 }
  - { offsetInCU: 0xEE50, offset: 0xEE50, size: 0x8, addend: 0x0, symName: __ZSt28__throw_bad_array_new_lengthB7v160006v, symObjAddr: 0x355C, symBinAddr: 0x100005474, symSize: 0x34 }
  - { offsetInCU: 0xF42D, offset: 0xF42D, size: 0x8, addend: 0x0, symName: __ZNSt3__16vectorI10TransitionNS_9allocatorIS1_EEE26__swap_out_circular_bufferERNS_14__split_bufferIS1_RS3_EE, symObjAddr: 0x2D78, symBinAddr: 0x100004C90, symSize: 0x118 }
  - { offsetInCU: 0x11C5A, offset: 0x11C5A, size: 0x8, addend: 0x0, symName: __Z10Precedencec, symObjAddr: 0x0, symBinAddr: 0x100001F18, symSize: 0x64 }
  - { offsetInCU: 0x11C86, offset: 0x11C86, size: 0x8, addend: 0x0, symName: __Z13RegExprToPostNSt3__112basic_stringIcNS_11char_traitsIcEENS_9allocatorIcEEEE, symObjAddr: 0x64, symBinAddr: 0x100001F7C, symSize: 0x3A8 }
  - { offsetInCU: 0x11CFC, offset: 0x11CFC, size: 0x8, addend: 0x0, symName: __ZNSt3__112basic_stringIcNS_11char_traitsIcEENS_9allocatorIcEEEC1B7v160006Ev, symObjAddr: 0x40C, symBinAddr: 0x100002324, symSize: 0x2C }
  - { offsetInCU: 0x11D53, offset: 0x11D53, size: 0x8, addend: 0x0, symName: __ZNSt3__15stackIcNS_5dequeIcNS_9allocatorIcEEEEEC1B7v160006Ev, symObjAddr: 0x438, symBinAddr: 0x100002350, symSize: 0x2C }
  - { offsetInCU: 0x11D7D, offset: 0x11D7D, size: 0x8, addend: 0x0, symName: __ZNKSt3__112basic_stringIcNS_11char_traitsIcEENS_9allocatorIcEEE6lengthB7v160006Ev, symObjAddr: 0x464, symBinAddr: 0x10000237C, symSize: 0x24 }
  - { offsetInCU: 0x11DA3, offset: 0x11DA3, size: 0x8, addend: 0x0, symName: __ZNSt3__112basic_stringIcNS_11char_traitsIcEENS_9allocatorIcEEEixB7v160006Em, symObjAddr: 0x488, symBinAddr: 0x1000023A0, symSize: 0x30 }
  - { offsetInCU: 0x11DD8, offset: 0x11DD8, size: 0x8, addend: 0x0, symName: __ZNSt3__112basic_stringIcNS_11char_traitsIcEENS_9allocatorIcEEEpLB7v160006Ec, symObjAddr: 0x4B8, symBinAddr: 0x1000023D0, symSize: 0x34 }
  - { offsetInCU: 0x11E0D, offset: 0x11E0D, size: 0x8, addend: 0x0, symName: __ZNSt3__15stackIcNS_5dequeIcNS_9allocatorIcEEEEE4pushB7v160006ERKc, symObjAddr: 0x4EC, symBinAddr: 0x100002404, symSize: 0x2C }
  - { offsetInCU: 0x11E41, offset: 0x11E41, size: 0x8, addend: 0x0, symName: __ZNKSt3__15stackIcNS_5dequeIcNS_9allocatorIcEEEEE5emptyB7v160006Ev, symObjAddr: 0x518, symBinAddr: 0x100002430, symSize: 0x28 }
  - { offsetInCU: 0x11E67, offset: 0x11E67, size: 0x8, addend: 0x0, symName: __ZNSt3__15stackIcNS_5dequeIcNS_9allocatorIcEEEEE3topB7v160006Ev, symObjAddr: 0x540, symBinAddr: 0x100002458, symSize: 0x24 }
  - { offsetInCU: 0x11E8D, offset: 0x11E8D, size: 0x8, addend: 0x0, symName: __ZNSt3__15stackIcNS_5dequeIcNS_9allocatorIcEEEEE3popB7v160006Ev, symObjAddr: 0x564, symBinAddr: 0x10000247C, symSize: 0x24 }
  - { offsetInCU: 0x11EB3, offset: 0x11EB3, size: 0x8, addend: 0x0, symName: __ZNSt3__15stackIcNS_5dequeIcNS_9allocatorIcEEEEED1Ev, symObjAddr: 0x588, symBinAddr: 0x1000024A0, symSize: 0x2C }
  - { offsetInCU: 0x11EDE, offset: 0x11EDE, size: 0x8, addend: 0x0, symName: __Z12constructNFARKNSt3__112basic_stringIcNS_11char_traitsIcEENS_9allocatorIcEEEE, symObjAddr: 0x5C0, symBinAddr: 0x1000024D8, symSize: 0x44C }
  - { offsetInCU: 0x11FDD, offset: 0x11FDD, size: 0x8, addend: 0x0, symName: __ZNSt3__15stackI3NFANS_5dequeIS1_NS_9allocatorIS1_EEEEEC1B7v160006Ev, symObjAddr: 0xA0C, symBinAddr: 0x100002924, symSize: 0x2C }
  - { offsetInCU: 0x12007, offset: 0x12007, size: 0x8, addend: 0x0, symName: __ZNKSt3__112basic_stringIcNS_11char_traitsIcEENS_9allocatorIcEEEixB7v160006Em, symObjAddr: 0xA38, symBinAddr: 0x100002950, symSize: 0x30 }
  - { offsetInCU: 0x1203C, offset: 0x1203C, size: 0x8, addend: 0x0, symName: __ZNSt3__15stackI3NFANS_5dequeIS1_NS_9allocatorIS1_EEEEE4pushB7v160006ERKS1_, symObjAddr: 0xA68, symBinAddr: 0x100002980, symSize: 0x2C }
  - { offsetInCU: 0x12070, offset: 0x12070, size: 0x8, addend: 0x0, symName: __ZN3NFA14createBasicNFAEcRi, symObjAddr: 0xA94, symBinAddr: 0x1000029AC, symSize: 0xE8 }
  - { offsetInCU: 0x120B0, offset: 0x120B0, size: 0x8, addend: 0x0, symName: __ZN3NFAD1Ev, symObjAddr: 0xB7C, symBinAddr: 0x100002A94, symSize: 0x2C }
  - { offsetInCU: 0x120DC, offset: 0x120DC, size: 0x8, addend: 0x0, symName: __ZNSt3__15stackI3NFANS_5dequeIS1_NS_9allocatorIS1_EEEEE3topB7v160006Ev, symObjAddr: 0xBA8, symBinAddr: 0x100002AC0, symSize: 0x24 }
  - { offsetInCU: 0x12102, offset: 0x12102, size: 0x8, addend: 0x0, symName: __ZN3NFAC1ERKS_, symObjAddr: 0xBCC, symBinAddr: 0x100002AE4, symSize: 0x34 }
  - { offsetInCU: 0x12137, offset: 0x12137, size: 0x8, addend: 0x0, symName: __ZNSt3__15stackI3NFANS_5dequeIS1_NS_9allocatorIS1_EEEEE3popB7v160006Ev, symObjAddr: 0xC00, symBinAddr: 0x100002B18, symSize: 0x24 }
  - { offsetInCU: 0x1215D, offset: 0x1215D, size: 0x8, addend: 0x0, symName: __ZN3NFA11concatenateERS_S0_, symObjAddr: 0xC24, symBinAddr: 0x100002B3C, symSize: 0x164 }
  - { offsetInCU: 0x121E7, offset: 0x121E7, size: 0x8, addend: 0x0, symName: __ZN3NFA5uniteERS_S0_Ri, symObjAddr: 0xD88, symBinAddr: 0x100002CA0, symSize: 0x25C }
  - { offsetInCU: 0x122D3, offset: 0x122D3, size: 0x8, addend: 0x0, symName: __ZN3NFA10kleeneStarERS_Ri, symObjAddr: 0xFE4, symBinAddr: 0x100002EFC, symSize: 0x1CC }
  - { offsetInCU: 0x1235D, offset: 0x1235D, size: 0x8, addend: 0x0, symName: __ZNSt3__15stackI3NFANS_5dequeIS1_NS_9allocatorIS1_EEEEED1Ev, symObjAddr: 0x11B0, symBinAddr: 0x1000030C8, symSize: 0x2C }
  - { offsetInCU: 0x12389, offset: 0x12389, size: 0x8, addend: 0x0, symName: __Z8printNFARK3NFA, symObjAddr: 0x11DC, symBinAddr: 0x1000030F4, symSize: 0x138 }
  - { offsetInCU: 0x12405, offset: 0x12405, size: 0x8, addend: 0x0, symName: __ZNKSt3__16vectorI10TransitionNS_9allocatorIS1_EEE4sizeB7v160006Ev, symObjAddr: 0x135C, symBinAddr: 0x100003274, symSize: 0x28 }
  - { offsetInCU: 0x1242B, offset: 0x1242B, size: 0x8, addend: 0x0, symName: __ZNSt3__113basic_ostreamIcNS_11char_traitsIcEEElsB7v160006EPFRS3_S4_E, symObjAddr: 0x1384, symBinAddr: 0x10000329C, symSize: 0x2C }
  - { offsetInCU: 0x1245F, offset: 0x1245F, size: 0x8, addend: 0x0, symName: __ZNKSt3__16vectorI10TransitionNS_9allocatorIS1_EEE5beginB7v160006Ev, symObjAddr: 0x1408, symBinAddr: 0x100003320, symSize: 0x30 }
  - { offsetInCU: 0x12487, offset: 0x12487, size: 0x8, addend: 0x0, symName: __ZNKSt3__16vectorI10TransitionNS_9allocatorIS1_EEE3endB7v160006Ev, symObjAddr: 0x1438, symBinAddr: 0x100003350, symSize: 0x30 }
  - { offsetInCU: 0x124AF, offset: 0x124AF, size: 0x8, addend: 0x0, symName: __ZNKSt3__111__wrap_iterIPK10TransitionEdeB7v160006Ev, symObjAddr: 0x149C, symBinAddr: 0x1000033B4, symSize: 0x18 }
  - { offsetInCU: 0x124D5, offset: 0x124D5, size: 0x8, addend: 0x0, symName: __ZNSt3__111__wrap_iterIPK10TransitionEppB7v160006Ev, symObjAddr: 0x14E8, symBinAddr: 0x100003400, symSize: 0x20 }
  - { offsetInCU: 0x124FB, offset: 0x124FB, size: 0x8, addend: 0x0, symName: _main, symObjAddr: 0x1508, symBinAddr: 0x100003420, symSize: 0x138 }
  - { offsetInCU: 0x1254F, offset: 0x1254F, size: 0x8, addend: 0x0, symName: __ZNSt3__15stackIcNS_5dequeIcNS_9allocatorIcEEEEED2Ev, symObjAddr: 0x1954, symBinAddr: 0x10000386C, symSize: 0x2C }
  - { offsetInCU: 0x1257B, offset: 0x1257B, size: 0x8, addend: 0x0, symName: __ZNSt3__15dequeIcNS_9allocatorIcEEED1B7v160006Ev, symObjAddr: 0x1980, symBinAddr: 0x100003898, symSize: 0x2C }
  - { offsetInCU: 0x125A5, offset: 0x125A5, size: 0x8, addend: 0x0, symName: __ZNSt3__15dequeIcNS_9allocatorIcEEED2B7v160006Ev, symObjAddr: 0x19AC, symBinAddr: 0x1000038C4, symSize: 0x9C }
  - { offsetInCU: 0x125FC, offset: 0x125FC, size: 0x8, addend: 0x0, symName: __ZNSt3__15dequeIcNS_9allocatorIcEEE5clearEv, symObjAddr: 0x1A48, symBinAddr: 0x100003960, symSize: 0x194 }
  - { offsetInCU: 0x12660, offset: 0x12660, size: 0x8, addend: 0x0, symName: __ZNSt3__114__split_bufferIPcNS_9allocatorIS1_EEE5beginB7v160006Ev, symObjAddr: 0x1BDC, symBinAddr: 0x100003AF4, symSize: 0x18 }
  - { offsetInCU: 0x12686, offset: 0x12686, size: 0x8, addend: 0x0, symName: __ZNSt3__114__split_bufferIPcNS_9allocatorIS1_EEE3endB7v160006Ev, symObjAddr: 0x1BF4, symBinAddr: 0x100003B0C, symSize: 0x18 }
  - { offsetInCU: 0x126AC, offset: 0x126AC, size: 0x8, addend: 0x0, symName: __ZNSt3__116allocator_traitsINS_9allocatorIcEEE10deallocateB7v160006ERS2_Pcm, symObjAddr: 0x1C0C, symBinAddr: 0x100003B24, symSize: 0x34 }
  - { offsetInCU: 0x126EE, offset: 0x126EE, size: 0x8, addend: 0x0, symName: __ZNSt3__15dequeIcNS_9allocatorIcEEE7__allocB7v160006Ev, symObjAddr: 0x1C40, symBinAddr: 0x100003B58, symSize: 0x28 }
  - { offsetInCU: 0x12714, offset: 0x12714, size: 0x8, addend: 0x0, symName: __ZNSt3__114__split_bufferIPcNS_9allocatorIS1_EEED1Ev, symObjAddr: 0x1C68, symBinAddr: 0x100003B80, symSize: 0x2C }
  - { offsetInCU: 0x12740, offset: 0x12740, size: 0x8, addend: 0x0, symName: __ZNSt3__15dequeIcNS_9allocatorIcEEE5beginB7v160006Ev, symObjAddr: 0x1C94, symBinAddr: 0x100003BAC, symSize: 0xCC }
  - { offsetInCU: 0x12775, offset: 0x12775, size: 0x8, addend: 0x0, symName: __ZNSt3__15dequeIcNS_9allocatorIcEEE3endB7v160006Ev, symObjAddr: 0x1D60, symBinAddr: 0x100003C78, symSize: 0xBC }
  - { offsetInCU: 0x127B9, offset: 0x127B9, size: 0x8, addend: 0x0, symName: __ZNSt3__116allocator_traitsINS_9allocatorIcEEE7destroyB7v160006IcvEEvRS2_PT_, symObjAddr: 0x1E50, symBinAddr: 0x100003D68, symSize: 0x2C }
  - { offsetInCU: 0x127F6, offset: 0x127F6, size: 0x8, addend: 0x0, symName: __ZNKSt3__116__deque_iteratorIcPcRcPS1_lLl4096EEdeB7v160006Ev, symObjAddr: 0x1E7C, symBinAddr: 0x100003D94, symSize: 0x18 }
  - { offsetInCU: 0x1281C, offset: 0x1281C, size: 0x8, addend: 0x0, symName: __ZNSt3__116__deque_iteratorIcPcRcPS1_lLl4096EEppB7v160006Ev, symObjAddr: 0x1E94, symBinAddr: 0x100003DAC, symSize: 0x68 }
  - { offsetInCU: 0x12842, offset: 0x12842, size: 0x8, addend: 0x0, symName: __ZNSt3__15dequeIcNS_9allocatorIcEEE6__sizeB7v160006Ev, symObjAddr: 0x1EFC, symBinAddr: 0x100003E14, symSize: 0x28 }
  - { offsetInCU: 0x12868, offset: 0x12868, size: 0x8, addend: 0x0, symName: __ZNKSt3__114__split_bufferIPcNS_9allocatorIS1_EEE4sizeB7v160006Ev, symObjAddr: 0x1F24, symBinAddr: 0x100003E3C, symSize: 0x28 }
  - { offsetInCU: 0x1288E, offset: 0x1288E, size: 0x8, addend: 0x0, symName: __ZNSt3__114__split_bufferIPcNS_9allocatorIS1_EEE5frontB7v160006Ev, symObjAddr: 0x1F4C, symBinAddr: 0x100003E64, symSize: 0x18 }
  - { offsetInCU: 0x128B4, offset: 0x128B4, size: 0x8, addend: 0x0, symName: __ZNSt3__114__split_bufferIPcNS_9allocatorIS1_EEE9pop_frontB7v160006Ev, symObjAddr: 0x1F64, symBinAddr: 0x100003E7C, symSize: 0x2C }
  - { offsetInCU: 0x128DA, offset: 0x128DA, size: 0x8, addend: 0x0, symName: __ZNKSt3__114__split_bufferIPcNS_9allocatorIS1_EEE5emptyB7v160006Ev, symObjAddr: 0x1F90, symBinAddr: 0x100003EA8, symSize: 0x28 }
  - { offsetInCU: 0x12900, offset: 0x12900, size: 0x8, addend: 0x0, symName: __ZNSt3__116__deque_iteratorIcPcRcPS1_lLl4096EEC1B7v160006ES3_S1_, symObjAddr: 0x1FB8, symBinAddr: 0x100003ED0, symSize: 0x3C }
  - { offsetInCU: 0x12948, offset: 0x12948, size: 0x8, addend: 0x0, symName: __ZNSt3__116__deque_iteratorIcPcRcPS1_lLl4096EEC2B7v160006ES3_S1_, symObjAddr: 0x1FF4, symBinAddr: 0x100003F0C, symSize: 0x2C }
  - { offsetInCU: 0x12990, offset: 0x12990, size: 0x8, addend: 0x0, symName: __ZNKSt3__15dequeIcNS_9allocatorIcEEE4sizeB7v160006Ev, symObjAddr: 0x2020, symBinAddr: 0x100003F38, symSize: 0x28 }
  - { offsetInCU: 0x129B6, offset: 0x129B6, size: 0x8, addend: 0x0, symName: __ZNKSt3__15dequeIcNS_9allocatorIcEEE6__sizeB7v160006Ev, symObjAddr: 0x2048, symBinAddr: 0x100003F60, symSize: 0x28 }
  - { offsetInCU: 0x129DC, offset: 0x129DC, size: 0x8, addend: 0x0, symName: __ZNKSt3__117__compressed_pairImNS_9allocatorIcEEE5firstB7v160006Ev, symObjAddr: 0x2070, symBinAddr: 0x100003F88, symSize: 0x24 }
  - { offsetInCU: 0x12A02, offset: 0x12A02, size: 0x8, addend: 0x0, symName: __ZNKSt3__122__compressed_pair_elemImLi0ELb0EE5__getB7v160006Ev, symObjAddr: 0x2094, symBinAddr: 0x100003FAC, symSize: 0x14 }
  - { offsetInCU: 0x12A28, offset: 0x12A28, size: 0x8, addend: 0x0, symName: __ZNSt3__19allocatorIcE7destroyB7v160006EPc, symObjAddr: 0x20D8, symBinAddr: 0x100003FF0, symSize: 0x14 }
  - { offsetInCU: 0x12A5C, offset: 0x12A5C, size: 0x8, addend: 0x0, symName: __ZNSt3__117__compressed_pairImNS_9allocatorIcEEE5firstB7v160006Ev, symObjAddr: 0x20EC, symBinAddr: 0x100004004, symSize: 0x24 }
  - { offsetInCU: 0x12A82, offset: 0x12A82, size: 0x8, addend: 0x0, symName: __ZNSt3__122__compressed_pair_elemImLi0ELb0EE5__getB7v160006Ev, symObjAddr: 0x2110, symBinAddr: 0x100004028, symSize: 0x14 }
  - { offsetInCU: 0x12AA8, offset: 0x12AA8, size: 0x8, addend: 0x0, symName: __ZNSt3__114__split_bufferIPcNS_9allocatorIS1_EEE19__destruct_at_beginB7v160006EPS1_, symObjAddr: 0x2124, symBinAddr: 0x10000403C, symSize: 0x2C }
  - { offsetInCU: 0x12ADC, offset: 0x12ADC, size: 0x8, addend: 0x0, symName: __ZNSt3__114__split_bufferIPcNS_9allocatorIS1_EEE19__destruct_at_beginEPS1_NS_17integral_constantIbLb1EEE, symObjAddr: 0x2150, symBinAddr: 0x100004068, symSize: 0x20 }
  - { offsetInCU: 0x12B1C, offset: 0x12B1C, size: 0x8, addend: 0x0, symName: __ZNSt3__19allocatorIcE10deallocateB7v160006EPcm, symObjAddr: 0x2170, symBinAddr: 0x100004088, symSize: 0x70 }
  - { offsetInCU: 0x12B5E, offset: 0x12B5E, size: 0x8, addend: 0x0, symName: __ZNSt3__117__compressed_pairImNS_9allocatorIcEEE6secondB7v160006Ev, symObjAddr: 0x2268, symBinAddr: 0x100004180, symSize: 0x24 }
  - { offsetInCU: 0x12B84, offset: 0x12B84, size: 0x8, addend: 0x0, symName: __ZNSt3__122__compressed_pair_elemINS_9allocatorIcEELi1ELb1EE5__getB7v160006Ev, symObjAddr: 0x228C, symBinAddr: 0x1000041A4, symSize: 0x14 }
  - { offsetInCU: 0x12BAA, offset: 0x12BAA, size: 0x8, addend: 0x0, symName: __ZNSt3__114__split_bufferIPcNS_9allocatorIS1_EEED2Ev, symObjAddr: 0x22A0, symBinAddr: 0x1000041B8, symSize: 0x80 }
  - { offsetInCU: 0x12BD6, offset: 0x12BD6, size: 0x8, addend: 0x0, symName: __ZNSt3__114__split_bufferIPcNS_9allocatorIS1_EEE5clearB7v160006Ev, symObjAddr: 0x2320, symBinAddr: 0x100004238, symSize: 0x28 }
  - { offsetInCU: 0x12BFC, offset: 0x12BFC, size: 0x8, addend: 0x0, symName: __ZNSt3__116allocator_traitsINS_9allocatorIPcEEE10deallocateB7v160006ERS3_PS2_m, symObjAddr: 0x2348, symBinAddr: 0x100004260, symSize: 0x34 }
  - { offsetInCU: 0x12C3E, offset: 0x12C3E, size: 0x8, addend: 0x0, symName: __ZNSt3__114__split_bufferIPcNS_9allocatorIS1_EEE7__allocB7v160006Ev, symObjAddr: 0x237C, symBinAddr: 0x100004294, symSize: 0x28 }
  - { offsetInCU: 0x12C64, offset: 0x12C64, size: 0x8, addend: 0x0, symName: __ZNKSt3__114__split_bufferIPcNS_9allocatorIS1_EEE8capacityB7v160006Ev, symObjAddr: 0x23A4, symBinAddr: 0x1000042BC, symSize: 0x40 }
  - { offsetInCU: 0x12C8A, offset: 0x12C8A, size: 0x8, addend: 0x0, symName: __ZNSt3__114__split_bufferIPcNS_9allocatorIS1_EEE17__destruct_at_endB7v160006EPS1_, symObjAddr: 0x23E4, symBinAddr: 0x1000042FC, symSize: 0x2C }
  - { offsetInCU: 0x12CBE, offset: 0x12CBE, size: 0x8, addend: 0x0, symName: __ZNSt3__114__split_bufferIPcNS_9allocatorIS1_EEE17__destruct_at_endB7v160006EPS1_NS_17integral_constantIbLb0EEE, symObjAddr: 0x2410, symBinAddr: 0x100004328, symSize: 0x94 }
  - { offsetInCU: 0x12CFE, offset: 0x12CFE, size: 0x8, addend: 0x0, symName: __ZNSt3__116allocator_traitsINS_9allocatorIPcEEE7destroyB7v160006IS2_vEEvRS3_PT_, symObjAddr: 0x24A4, symBinAddr: 0x1000043BC, symSize: 0x2C }
  - { offsetInCU: 0x12D3B, offset: 0x12D3B, size: 0x8, addend: 0x0, symName: __ZNSt3__19allocatorIPcE7destroyB7v160006EPS1_, symObjAddr: 0x24E4, symBinAddr: 0x1000043FC, symSize: 0x14 }
  - { offsetInCU: 0x12D6F, offset: 0x12D6F, size: 0x8, addend: 0x0, symName: __ZNSt3__19allocatorIPcE10deallocateB7v160006EPS1_m, symObjAddr: 0x24F8, symBinAddr: 0x100004410, symSize: 0x70 }
  - { offsetInCU: 0x12DB1, offset: 0x12DB1, size: 0x8, addend: 0x0, symName: __ZNSt3__117__compressed_pairIPPcNS_9allocatorIS1_EEE6secondB7v160006Ev, symObjAddr: 0x2568, symBinAddr: 0x100004480, symSize: 0x24 }
  - { offsetInCU: 0x12DD7, offset: 0x12DD7, size: 0x8, addend: 0x0, symName: __ZNSt3__122__compressed_pair_elemINS_9allocatorIPcEELi1ELb1EE5__getB7v160006Ev, symObjAddr: 0x258C, symBinAddr: 0x1000044A4, symSize: 0x14 }
  - { offsetInCU: 0x12DFD, offset: 0x12DFD, size: 0x8, addend: 0x0, symName: __ZNKSt3__114__split_bufferIPcNS_9allocatorIS1_EEE9__end_capB7v160006Ev, symObjAddr: 0x25A0, symBinAddr: 0x1000044B8, symSize: 0x28 }
  - { offsetInCU: 0x12E23, offset: 0x12E23, size: 0x8, addend: 0x0, symName: __ZNKSt3__117__compressed_pairIPPcNS_9allocatorIS1_EEE5firstB7v160006Ev, symObjAddr: 0x25C8, symBinAddr: 0x1000044E0, symSize: 0x24 }
  - { offsetInCU: 0x12E49, offset: 0x12E49, size: 0x8, addend: 0x0, symName: __ZNKSt3__122__compressed_pair_elemIPPcLi0ELb0EE5__getB7v160006Ev, symObjAddr: 0x25EC, symBinAddr: 0x100004504, symSize: 0x14 }
  - { offsetInCU: 0x12E6F, offset: 0x12E6F, size: 0x8, addend: 0x0, symName: __ZN3NFAC1Ev, symObjAddr: 0x2600, symBinAddr: 0x100004518, symSize: 0x2C }
  - { offsetInCU: 0x12E99, offset: 0x12E99, size: 0x8, addend: 0x0, symName: __ZN3NFA13addTransitionEiic, symObjAddr: 0x262C, symBinAddr: 0x100004544, symSize: 0x58 }
  - { offsetInCU: 0x12EE9, offset: 0x12EE9, size: 0x8, addend: 0x0, symName: __ZN3NFAC2Ev, symObjAddr: 0x2684, symBinAddr: 0x10000459C, symSize: 0x3C }
  - { offsetInCU: 0x12F13, offset: 0x12F13, size: 0x8, addend: 0x0, symName: __ZNSt3__16vectorI10TransitionNS_9allocatorIS1_EEEC1B7v160006Ev, symObjAddr: 0x26C0, symBinAddr: 0x1000045D8, symSize: 0x2C }
  - { offsetInCU: 0x12F3D, offset: 0x12F3D, size: 0x8, addend: 0x0, symName: __ZNSt3__16vectorI10TransitionNS_9allocatorIS1_EEEC2B7v160006Ev, symObjAddr: 0x26EC, symBinAddr: 0x100004604, symSize: 0x4C }
  - { offsetInCU: 0x12F73, offset: 0x12F73, size: 0x8, addend: 0x0, symName: __ZNSt3__117__compressed_pairIP10TransitionNS_9allocatorIS1_EEEC1B7v160006IDnNS_18__default_init_tagEEEOT_OT0_, symObjAddr: 0x2738, symBinAddr: 0x100004650, symSize: 0x3C }
  - { offsetInCU: 0x12FCB, offset: 0x12FCB, size: 0x8, addend: 0x0, symName: __ZNSt3__117__compressed_pairIP10TransitionNS_9allocatorIS1_EEEC2B7v160006IDnNS_18__default_init_tagEEEOT_OT0_, symObjAddr: 0x2784, symBinAddr: 0x10000469C, symSize: 0x40 }
  - { offsetInCU: 0x13023, offset: 0x13023, size: 0x8, addend: 0x0, symName: __ZNSt3__122__compressed_pair_elemIP10TransitionLi0ELb0EEC2B7v160006IDnvEEOT_, symObjAddr: 0x27C4, symBinAddr: 0x1000046DC, symSize: 0x1C }
  - { offsetInCU: 0x13065, offset: 0x13065, size: 0x8, addend: 0x0, symName: __ZNSt3__122__compressed_pair_elemINS_9allocatorI10TransitionEELi1ELb1EEC2B7v160006ENS_18__default_init_tagE, symObjAddr: 0x27E0, symBinAddr: 0x1000046F8, symSize: 0x2C }
  - { offsetInCU: 0x13099, offset: 0x13099, size: 0x8, addend: 0x0, symName: __ZNSt3__19allocatorI10TransitionEC2B7v160006Ev, symObjAddr: 0x280C, symBinAddr: 0x100004724, symSize: 0x2C }
  - { offsetInCU: 0x130C3, offset: 0x130C3, size: 0x8, addend: 0x0, symName: __ZNSt3__116__non_trivial_ifILb1ENS_9allocatorI10TransitionEEEC2B7v160006Ev, symObjAddr: 0x2838, symBinAddr: 0x100004750, symSize: 0x14 }
  - { offsetInCU: 0x130ED, offset: 0x130ED, size: 0x8, addend: 0x0, symName: __ZNSt3__16vectorI10TransitionNS_9allocatorIS1_EEE9push_backB7v160006EOS1_, symObjAddr: 0x284C, symBinAddr: 0x100004764, symSize: 0x6C }
  - { offsetInCU: 0x13124, offset: 0x13124, size: 0x8, addend: 0x0, symName: __ZN10TransitionC1Eiic, symObjAddr: 0x28B8, symBinAddr: 0x1000047D0, symSize: 0x44 }
  - { offsetInCU: 0x13178, offset: 0x13178, size: 0x8, addend: 0x0, symName: __ZNSt3__16vectorI10TransitionNS_9allocatorIS1_EEE9__end_capB7v160006Ev, symObjAddr: 0x28FC, symBinAddr: 0x100004814, symSize: 0x28 }
  - { offsetInCU: 0x131A4, offset: 0x131A4, size: 0x8, addend: 0x0, symName: __ZNSt3__16vectorI10TransitionNS_9allocatorIS1_EEE22__construct_one_at_endB7v160006IJS1_EEEvDpOT_, symObjAddr: 0x2924, symBinAddr: 0x10000483C, symSize: 0x98 }
  - { offsetInCU: 0x131F3, offset: 0x131F3, size: 0x8, addend: 0x0, symName: __ZNSt3__16vectorI10TransitionNS_9allocatorIS1_EEE21__push_back_slow_pathIS1_EEvOT_, symObjAddr: 0x29BC, symBinAddr: 0x1000048D4, symSize: 0xE0 }
  - { offsetInCU: 0x13251, offset: 0x13251, size: 0x8, addend: 0x0, symName: __ZNSt3__117__compressed_pairIP10TransitionNS_9allocatorIS1_EEE5firstB7v160006Ev, symObjAddr: 0x2A9C, symBinAddr: 0x1000049B4, symSize: 0x24 }
  - { offsetInCU: 0x13277, offset: 0x13277, size: 0x8, addend: 0x0, symName: __ZNSt3__122__compressed_pair_elemIP10TransitionLi0ELb0EE5__getB7v160006Ev, symObjAddr: 0x2AC0, symBinAddr: 0x1000049D8, symSize: 0x14 }
  - { offsetInCU: 0x132B6, offset: 0x132B6, size: 0x8, addend: 0x0, symName: __ZNSt3__16vectorI10TransitionNS_9allocatorIS1_EEE21_ConstructTransactionC1B7v160006ERS4_m, symObjAddr: 0x2AD4, symBinAddr: 0x1000049EC, symSize: 0x3C }
  - { offsetInCU: 0x132FE, offset: 0x132FE, size: 0x8, addend: 0x0, symName: __ZNSt3__116allocator_traitsINS_9allocatorI10TransitionEEE9constructB7v160006IS2_JS2_EvEEvRS3_PT_DpOT0_, symObjAddr: 0x2B10, symBinAddr: 0x100004A28, symSize: 0x34 }
  - { offsetInCU: 0x13355, offset: 0x13355, size: 0x8, addend: 0x0, symName: __ZNSt3__16vectorI10TransitionNS_9allocatorIS1_EEE7__allocB7v160006Ev, symObjAddr: 0x2B44, symBinAddr: 0x100004A5C, symSize: 0x28 }
  - { offsetInCU: 0x1337B, offset: 0x1337B, size: 0x8, addend: 0x0, symName: __ZNSt3__16vectorI10TransitionNS_9allocatorIS1_EEE21_ConstructTransactionD1B7v160006Ev, symObjAddr: 0x2B80, symBinAddr: 0x100004A98, symSize: 0x2C }
  - { offsetInCU: 0x133A5, offset: 0x133A5, size: 0x8, addend: 0x0, symName: __ZNSt3__16vectorI10TransitionNS_9allocatorIS1_EEE21_ConstructTransactionC2B7v160006ERS4_m, symObjAddr: 0x2BAC, symBinAddr: 0x100004AC4, symSize: 0x4C }
  - { offsetInCU: 0x133ED, offset: 0x133ED, size: 0x8, addend: 0x0, symName: __ZNSt3__19allocatorI10TransitionE9constructB7v160006IS1_JS1_EEEvPT_DpOT0_, symObjAddr: 0x2BF8, symBinAddr: 0x100004B10, symSize: 0x30 }
  - { offsetInCU: 0x13443, offset: 0x13443, size: 0x8, addend: 0x0, symName: __ZNSt3__117__compressed_pairIP10TransitionNS_9allocatorIS1_EEE6secondB7v160006Ev, symObjAddr: 0x2C28, symBinAddr: 0x100004B40, symSize: 0x24 }
  - { offsetInCU: 0x13469, offset: 0x13469, size: 0x8, addend: 0x0, symName: __ZNSt3__122__compressed_pair_elemINS_9allocatorI10TransitionEELi1ELb1EE5__getB7v160006Ev, symObjAddr: 0x2C4C, symBinAddr: 0x100004B64, symSize: 0x14 }
  - { offsetInCU: 0x1348F, offset: 0x1348F, size: 0x8, addend: 0x0, symName: __ZNSt3__16vectorI10TransitionNS_9allocatorIS1_EEE21_ConstructTransactionD2B7v160006Ev, symObjAddr: 0x2C60, symBinAddr: 0x100004B78, symSize: 0x20 }
  - { offsetInCU: 0x134B9, offset: 0x134B9, size: 0x8, addend: 0x0, symName: __ZNKSt3__16vectorI10TransitionNS_9allocatorIS1_EEE11__recommendB7v160006Em, symObjAddr: 0x2C80, symBinAddr: 0x100004B98, symSize: 0xB4 }
  - { offsetInCU: 0x1350E, offset: 0x1350E, size: 0x8, addend: 0x0, symName: __ZNSt3__114__split_bufferI10TransitionRNS_9allocatorIS1_EEEC1EmmS4_, symObjAddr: 0x2D34, symBinAddr: 0x100004C4C, symSize: 0x44 }
  - { offsetInCU: 0x13564, offset: 0x13564, size: 0x8, addend: 0x0, symName: __ZNSt3__114__split_bufferI10TransitionRNS_9allocatorIS1_EEED1Ev, symObjAddr: 0x2E90, symBinAddr: 0x100004DA8, symSize: 0x2C }
  - { offsetInCU: 0x13590, offset: 0x13590, size: 0x8, addend: 0x0, symName: __ZNKSt3__16vectorI10TransitionNS_9allocatorIS1_EEE8max_sizeEv, symObjAddr: 0x2EBC, symBinAddr: 0x100004DD4, symSize: 0x74 }
  - { offsetInCU: 0x135B8, offset: 0x135B8, size: 0x8, addend: 0x0, symName: __ZNKSt3__16vectorI10TransitionNS_9allocatorIS1_EEE20__throw_length_errorB7v160006Ev, symObjAddr: 0x2F30, symBinAddr: 0x100004E48, symSize: 0x1C }
  - { offsetInCU: 0x135DE, offset: 0x135DE, size: 0x8, addend: 0x0, symName: __ZNKSt3__16vectorI10TransitionNS_9allocatorIS1_EEE8capacityB7v160006Ev, symObjAddr: 0x2F4C, symBinAddr: 0x100004E64, symSize: 0x40 }
  - { offsetInCU: 0x1360E, offset: 0x1360E, size: 0x8, addend: 0x0, symName: __ZNSt3__116allocator_traitsINS_9allocatorI10TransitionEEE8max_sizeB7v160006IS3_vEEmRKS3_, symObjAddr: 0x2FE4, symBinAddr: 0x100004EFC, symSize: 0x24 }
  - { offsetInCU: 0x1363C, offset: 0x1363C, size: 0x8, addend: 0x0, symName: __ZNKSt3__16vectorI10TransitionNS_9allocatorIS1_EEE7__allocB7v160006Ev, symObjAddr: 0x3008, symBinAddr: 0x100004F20, symSize: 0x28 }
  - { offsetInCU: 0x13662, offset: 0x13662, size: 0x8, addend: 0x0, symName: __ZNSt3__114numeric_limitsIlE3maxB7v160006Ev, symObjAddr: 0x3030, symBinAddr: 0x100004F48, symSize: 0x14 }
  - { offsetInCU: 0x13680, offset: 0x13680, size: 0x8, addend: 0x0, symName: __ZNKSt3__16__lessImmEclB7v160006ERKmS3_, symObjAddr: 0x3098, symBinAddr: 0x100004FB0, symSize: 0x34 }
  - { offsetInCU: 0x136C2, offset: 0x136C2, size: 0x8, addend: 0x0, symName: __ZNKSt3__19allocatorI10TransitionE8max_sizeB7v160006Ev, symObjAddr: 0x30CC, symBinAddr: 0x100004FE4, symSize: 0x18 }
  - { offsetInCU: 0x136E8, offset: 0x136E8, size: 0x8, addend: 0x0, symName: __ZNKSt3__117__compressed_pairIP10TransitionNS_9allocatorIS1_EEE6secondB7v160006Ev, symObjAddr: 0x30E4, symBinAddr: 0x100004FFC, symSize: 0x24 }
  - { offsetInCU: 0x1370E, offset: 0x1370E, size: 0x8, addend: 0x0, symName: __ZNKSt3__122__compressed_pair_elemINS_9allocatorI10TransitionEELi1ELb1EE5__getB7v160006Ev, symObjAddr: 0x3108, symBinAddr: 0x100005020, symSize: 0x14 }
  - { offsetInCU: 0x13734, offset: 0x13734, size: 0x8, addend: 0x0, symName: __ZNSt3__123__libcpp_numeric_limitsIlLb1EE3maxB7v160006Ev, symObjAddr: 0x311C, symBinAddr: 0x100005034, symSize: 0x8 }
  - { offsetInCU: 0x13748, offset: 0x13748, size: 0x8, addend: 0x0, symName: __ZNSt12length_errorC1B7v160006EPKc, symObjAddr: 0x3188, symBinAddr: 0x1000050A0, symSize: 0x34 }
  - { offsetInCU: 0x13780, offset: 0x13780, size: 0x8, addend: 0x0, symName: __ZNSt12length_errorC2B7v160006EPKc, symObjAddr: 0x31BC, symBinAddr: 0x1000050D4, symSize: 0x4C }
  - { offsetInCU: 0x137B8, offset: 0x137B8, size: 0x8, addend: 0x0, symName: __ZNKSt3__16vectorI10TransitionNS_9allocatorIS1_EEE9__end_capB7v160006Ev, symObjAddr: 0x3208, symBinAddr: 0x100005120, symSize: 0x28 }
  - { offsetInCU: 0x137DE, offset: 0x137DE, size: 0x8, addend: 0x0, symName: __ZNKSt3__117__compressed_pairIP10TransitionNS_9allocatorIS1_EEE5firstB7v160006Ev, symObjAddr: 0x3230, symBinAddr: 0x100005148, symSize: 0x24 }
  - { offsetInCU: 0x13804, offset: 0x13804, size: 0x8, addend: 0x0, symName: __ZNKSt3__122__compressed_pair_elemIP10TransitionLi0ELb0EE5__getB7v160006Ev, symObjAddr: 0x3254, symBinAddr: 0x10000516C, symSize: 0x14 }
  - { offsetInCU: 0x1382A, offset: 0x1382A, size: 0x8, addend: 0x0, symName: __ZNSt3__114__split_bufferI10TransitionRNS_9allocatorIS1_EEEC2EmmS4_, symObjAddr: 0x32BC, symBinAddr: 0x1000051D4, symSize: 0xE0 }
  - { offsetInCU: 0x1389E, offset: 0x1389E, size: 0x8, addend: 0x0, symName: __ZNSt3__117__compressed_pairIP10TransitionRNS_9allocatorIS1_EEEC1B7v160006IDnS5_EEOT_OT0_, symObjAddr: 0x339C, symBinAddr: 0x1000052B4, symSize: 0x3C }
  - { offsetInCU: 0x138F6, offset: 0x138F6, size: 0x8, addend: 0x0, symName: __ZNSt3__114__split_bufferI10TransitionRNS_9allocatorIS1_EEE7__allocB7v160006Ev, symObjAddr: 0x3418, symBinAddr: 0x100005330, symSize: 0x28 }
  - { offsetInCU: 0x1391C, offset: 0x1391C, size: 0x8, addend: 0x0, symName: __ZNSt3__114__split_bufferI10TransitionRNS_9allocatorIS1_EEE9__end_capB7v160006Ev, symObjAddr: 0x3440, symBinAddr: 0x100005358, symSize: 0x28 }
  - { offsetInCU: 0x13942, offset: 0x13942, size: 0x8, addend: 0x0, symName: __ZNSt3__117__compressed_pairIP10TransitionRNS_9allocatorIS1_EEEC2B7v160006IDnS5_EEOT_OT0_, symObjAddr: 0x3468, symBinAddr: 0x100005380, symSize: 0x48 }
  - { offsetInCU: 0x1399A, offset: 0x1399A, size: 0x8, addend: 0x0, symName: __ZNSt3__122__compressed_pair_elemIRNS_9allocatorI10TransitionEELi1ELb0EEC2B7v160006IS4_vEEOT_, symObjAddr: 0x34B0, symBinAddr: 0x1000053C8, symSize: 0x20 }
  - { offsetInCU: 0x139DC, offset: 0x139DC, size: 0x8, addend: 0x0, symName: __ZNSt3__19allocatorI10TransitionE8allocateB7v160006Em, symObjAddr: 0x34D0, symBinAddr: 0x1000053E8, symSize: 0x8C }
  - { offsetInCU: 0x13A10, offset: 0x13A10, size: 0x8, addend: 0x0, symName: __ZNSt3__117__compressed_pairIP10TransitionRNS_9allocatorIS1_EEE6secondB7v160006Ev, symObjAddr: 0x35DC, symBinAddr: 0x1000054F4, symSize: 0x28 }
  - { offsetInCU: 0x13A36, offset: 0x13A36, size: 0x8, addend: 0x0, symName: __ZNSt3__122__compressed_pair_elemIRNS_9allocatorI10TransitionEELi1ELb0EE5__getB7v160006Ev, symObjAddr: 0x3604, symBinAddr: 0x10000551C, symSize: 0x18 }
  - { offsetInCU: 0x13A5C, offset: 0x13A5C, size: 0x8, addend: 0x0, symName: __ZNSt3__117__compressed_pairIP10TransitionRNS_9allocatorIS1_EEE5firstB7v160006Ev, symObjAddr: 0x361C, symBinAddr: 0x100005534, symSize: 0x24 }
  - { offsetInCU: 0x13A82, offset: 0x13A82, size: 0x8, addend: 0x0, symName: __ZNKSt3__16vectorI10TransitionNS_9allocatorIS1_EEE17__annotate_deleteB7v160006Ev, symObjAddr: 0x3640, symBinAddr: 0x100005558, symSize: 0xD4 }
  - { offsetInCU: 0x13AA8, offset: 0x13AA8, size: 0x8, addend: 0x0, symName: __ZNSt3__116reverse_iteratorIP10TransitionEC1B7v160006ES2_, symObjAddr: 0x37FC, symBinAddr: 0x100005714, symSize: 0x34 }
  - { offsetInCU: 0x13AE0, offset: 0x13AE0, size: 0x8, addend: 0x0, symName: __ZNKSt3__116reverse_iteratorIP10TransitionE4baseB7v160006Ev, symObjAddr: 0x3830, symBinAddr: 0x100005748, symSize: 0x18 }
  - { offsetInCU: 0x13B06, offset: 0x13B06, size: 0x8, addend: 0x0, symName: __ZNKSt3__16vectorI10TransitionNS_9allocatorIS1_EEE14__annotate_newB7v160006Em, symObjAddr: 0x3884, symBinAddr: 0x10000579C, symSize: 0xC8 }
  - { offsetInCU: 0x13B3B, offset: 0x13B3B, size: 0x8, addend: 0x0, symName: __ZNKSt3__16vectorI10TransitionNS_9allocatorIS1_EEE31__annotate_contiguous_containerB7v160006EPKvS6_S6_S6_, symObjAddr: 0x395C, symBinAddr: 0x100005874, symSize: 0x20 }
  - { offsetInCU: 0x13B8D, offset: 0x13B8D, size: 0x8, addend: 0x0, symName: __ZNKSt3__16vectorI10TransitionNS_9allocatorIS1_EEE4dataB7v160006Ev, symObjAddr: 0x397C, symBinAddr: 0x100005894, symSize: 0x28 }
  - { offsetInCU: 0x13BB3, offset: 0x13BB3, size: 0x8, addend: 0x0, symName: __ZNKSt3__116reverse_iteratorIP10TransitionEdeB7v160006Ev, symObjAddr: 0x3A44, symBinAddr: 0x10000595C, symSize: 0x28 }
  - { offsetInCU: 0x13BE7, offset: 0x13BE7, size: 0x8, addend: 0x0, symName: __ZNSt3__116reverse_iteratorIP10TransitionEppB7v160006Ev, symObjAddr: 0x3A6C, symBinAddr: 0x100005984, symSize: 0x20 }
  - { offsetInCU: 0x13C12, offset: 0x13C12, size: 0x8, addend: 0x0, symName: __ZNSt3__119__to_address_helperINS_16reverse_iteratorIP10TransitionEEvE6__callB7v160006ERKS4_, symObjAddr: 0x3B04, symBinAddr: 0x100005A1C, symSize: 0x4C }
  - { offsetInCU: 0x13C35, offset: 0x13C35, size: 0x8, addend: 0x0, symName: __ZNKSt3__116reverse_iteratorIP10TransitionEptB7v160006Ev, symObjAddr: 0x3B50, symBinAddr: 0x100005A68, symSize: 0x24 }
  - { offsetInCU: 0x13C7F, offset: 0x13C7F, size: 0x8, addend: 0x0, symName: __ZNKSt3__111__move_loopINS_17_ClassicAlgPolicyEEclB7v160006INS_16reverse_iteratorIP10TransitionEES7_S7_EENS_4pairIT_T1_EES9_T0_SA_, symObjAddr: 0x3E04, symBinAddr: 0x100005D1C, symSize: 0xA8 }
  - { offsetInCU: 0x13CEA, offset: 0x13CEA, size: 0x8, addend: 0x0, symName: __ZNSt3__18_IterOpsINS_17_ClassicAlgPolicyEE11__iter_moveB7v160006IRNS_16reverse_iteratorIP10TransitionEEEENS_9enable_ifIXsr12is_referenceIDTdeclsr3stdE7declvalIRT_EEEEE5valueEDTclsr3stdE4movedeclsr3stdE7declvalISB_EEEEE4typeEOSA_, symObjAddr: 0x400C, symBinAddr: 0x100005F24, symSize: 0x28 }
  - { offsetInCU: 0x13D16, offset: 0x13D16, size: 0x8, addend: 0x0, symName: __ZNSt3__18_IterOpsINS_17_ClassicAlgPolicyEE25__validate_iter_referenceB7v160006IRNS_16reverse_iteratorIP10TransitionEEEEvv, symObjAddr: 0x4034, symBinAddr: 0x100005F4C, symSize: 0x4 }
  - { offsetInCU: 0x13D34, offset: 0x13D34, size: 0x8, addend: 0x0, symName: __ZNSt3__118__unwrap_iter_implINS_16reverse_iteratorIP10TransitionEELb0EE8__unwrapB7v160006ES4_, symObjAddr: 0x4038, symBinAddr: 0x100005F50, symSize: 0x24 }
  - { offsetInCU: 0x13D57, offset: 0x13D57, size: 0x8, addend: 0x0, symName: __ZNSt3__14pairINS_16reverse_iteratorIP10TransitionEES4_EC1B7v160006ERKS4_S7_, symObjAddr: 0x405C, symBinAddr: 0x100005F74, symSize: 0x3C }
  - { offsetInCU: 0x13D9D, offset: 0x13D9D, size: 0x8, addend: 0x0, symName: __ZNSt3__14pairINS_16reverse_iteratorIP10TransitionEES4_EC2B7v160006ERKS4_S7_, symObjAddr: 0x4098, symBinAddr: 0x100005FB0, symSize: 0x34 }
  - { offsetInCU: 0x13DE3, offset: 0x13DE3, size: 0x8, addend: 0x0, symName: __ZNSt3__118__unwrap_iter_implINS_16reverse_iteratorIP10TransitionEELb0EE8__rewrapB7v160006ES4_S4_, symObjAddr: 0x40CC, symBinAddr: 0x100005FE4, symSize: 0x2C }
  - { offsetInCU: 0x13E10, offset: 0x13E10, size: 0x8, addend: 0x0, symName: __ZNSt3__116reverse_iteratorIP10TransitionEC2B7v160006ES2_, symObjAddr: 0x40F8, symBinAddr: 0x100006010, symSize: 0x28 }
  - { offsetInCU: 0x13E48, offset: 0x13E48, size: 0x8, addend: 0x0, symName: __ZNSt3__114__split_bufferI10TransitionRNS_9allocatorIS1_EEED2Ev, symObjAddr: 0x4120, symBinAddr: 0x100006038, symSize: 0x80 }
  - { offsetInCU: 0x13E74, offset: 0x13E74, size: 0x8, addend: 0x0, symName: __ZNSt3__114__split_bufferI10TransitionRNS_9allocatorIS1_EEE5clearB7v160006Ev, symObjAddr: 0x41A0, symBinAddr: 0x1000060B8, symSize: 0x28 }
  - { offsetInCU: 0x13E9A, offset: 0x13E9A, size: 0x8, addend: 0x0, symName: __ZNSt3__116allocator_traitsINS_9allocatorI10TransitionEEE10deallocateB7v160006ERS3_PS2_m, symObjAddr: 0x41C8, symBinAddr: 0x1000060E0, symSize: 0x34 }
  - { offsetInCU: 0x13EDC, offset: 0x13EDC, size: 0x8, addend: 0x0, symName: __ZNKSt3__114__split_bufferI10TransitionRNS_9allocatorIS1_EEE8capacityB7v160006Ev, symObjAddr: 0x41FC, symBinAddr: 0x100006114, symSize: 0x40 }
  - { offsetInCU: 0x13F02, offset: 0x13F02, size: 0x8, addend: 0x0, symName: __ZNSt3__114__split_bufferI10TransitionRNS_9allocatorIS1_EEE17__destruct_at_endB7v160006EPS1_, symObjAddr: 0x423C, symBinAddr: 0x100006154, symSize: 0x2C }
  - { offsetInCU: 0x13F36, offset: 0x13F36, size: 0x8, addend: 0x0, symName: __ZNSt3__114__split_bufferI10TransitionRNS_9allocatorIS1_EEE17__destruct_at_endB7v160006EPS1_NS_17integral_constantIbLb0EEE, symObjAddr: 0x4268, symBinAddr: 0x100006180, symSize: 0x94 }
  - { offsetInCU: 0x13F76, offset: 0x13F76, size: 0x8, addend: 0x0, symName: __ZNSt3__116allocator_traitsINS_9allocatorI10TransitionEEE7destroyB7v160006IS2_vEEvRS3_PT_, symObjAddr: 0x42FC, symBinAddr: 0x100006214, symSize: 0x2C }
  - { offsetInCU: 0x13FB3, offset: 0x13FB3, size: 0x8, addend: 0x0, symName: __ZNSt3__19allocatorI10TransitionE7destroyB7v160006EPS1_, symObjAddr: 0x4328, symBinAddr: 0x100006240, symSize: 0x14 }
  - { offsetInCU: 0x13FE7, offset: 0x13FE7, size: 0x8, addend: 0x0, symName: __ZNSt3__19allocatorI10TransitionE10deallocateB7v160006EPS1_m, symObjAddr: 0x433C, symBinAddr: 0x100006254, symSize: 0x74 }
  - { offsetInCU: 0x14029, offset: 0x14029, size: 0x8, addend: 0x0, symName: __ZNKSt3__114__split_bufferI10TransitionRNS_9allocatorIS1_EEE9__end_capB7v160006Ev, symObjAddr: 0x43B0, symBinAddr: 0x1000062C8, symSize: 0x28 }
  - { offsetInCU: 0x1404F, offset: 0x1404F, size: 0x8, addend: 0x0, symName: __ZNKSt3__117__compressed_pairIP10TransitionRNS_9allocatorIS1_EEE5firstB7v160006Ev, symObjAddr: 0x43D8, symBinAddr: 0x1000062F0, symSize: 0x24 }
  - { offsetInCU: 0x14075, offset: 0x14075, size: 0x8, addend: 0x0, symName: __ZN10TransitionC2Eiic, symObjAddr: 0x43FC, symBinAddr: 0x100006314, symSize: 0x38 }
  - { offsetInCU: 0x140C9, offset: 0x140C9, size: 0x8, addend: 0x0, symName: __ZN3NFAD2Ev, symObjAddr: 0x4434, symBinAddr: 0x10000634C, symSize: 0x30 }
  - { offsetInCU: 0x140F5, offset: 0x140F5, size: 0x8, addend: 0x0, symName: __ZNSt3__16vectorI10TransitionNS_9allocatorIS1_EEED1B7v160006Ev, symObjAddr: 0x4464, symBinAddr: 0x10000637C, symSize: 0x2C }
  - { offsetInCU: 0x1411F, offset: 0x1411F, size: 0x8, addend: 0x0, symName: __ZNSt3__16vectorI10TransitionNS_9allocatorIS1_EEED2B7v160006Ev, symObjAddr: 0x4490, symBinAddr: 0x1000063A8, symSize: 0x3C }
  - { offsetInCU: 0x14149, offset: 0x14149, size: 0x8, addend: 0x0, symName: __ZNSt3__16vectorI10TransitionNS_9allocatorIS1_EEE16__destroy_vectorC1ERS4_, symObjAddr: 0x44CC, symBinAddr: 0x1000063E4, symSize: 0x34 }
  - { offsetInCU: 0x14182, offset: 0x14182, size: 0x8, addend: 0x0, symName: __ZNSt3__16vectorI10TransitionNS_9allocatorIS1_EEE16__destroy_vectorclB7v160006Ev, symObjAddr: 0x4500, symBinAddr: 0x100006418, symSize: 0x9C }
  - { offsetInCU: 0x141A8, offset: 0x141A8, size: 0x8, addend: 0x0, symName: __ZNSt3__16vectorI10TransitionNS_9allocatorIS1_EEE16__destroy_vectorC2ERS4_, symObjAddr: 0x459C, symBinAddr: 0x1000064B4, symSize: 0x20 }
  - { offsetInCU: 0x141E1, offset: 0x141E1, size: 0x8, addend: 0x0, symName: __ZNSt3__16vectorI10TransitionNS_9allocatorIS1_EEE7__clearB7v160006Ev, symObjAddr: 0x45CC, symBinAddr: 0x1000064E4, symSize: 0x28 }
  - { offsetInCU: 0x14207, offset: 0x14207, size: 0x8, addend: 0x0, symName: __ZNSt3__16vectorI10TransitionNS_9allocatorIS1_EEE22__base_destruct_at_endB7v160006EPS1_, symObjAddr: 0x45F4, symBinAddr: 0x10000650C, symSize: 0xA0 }
  - { offsetInCU: 0x1424B, offset: 0x1424B, size: 0x8, addend: 0x0, symName: __ZN3NFAC2ERKS_, symObjAddr: 0x4694, symBinAddr: 0x1000065AC, symSize: 0x50 }
  - { offsetInCU: 0x14280, offset: 0x14280, size: 0x8, addend: 0x0, symName: __ZNSt3__16vectorI10TransitionNS_9allocatorIS1_EEEC1ERKS4_, symObjAddr: 0x46E4, symBinAddr: 0x1000065FC, symSize: 0x34 }
  - { offsetInCU: 0x142BB, offset: 0x142BB, size: 0x8, addend: 0x0, symName: __ZNSt3__16vectorI10TransitionNS_9allocatorIS1_EEEC2ERKS4_, symObjAddr: 0x4718, symBinAddr: 0x100006630, symSize: 0x118 }
  - { offsetInCU: 0x1431A, offset: 0x1431A, size: 0x8, addend: 0x0, symName: __ZNSt3__116allocator_traitsINS_9allocatorI10TransitionEEE37select_on_container_copy_constructionB7v160006IS3_vvEES3_RKS3_, symObjAddr: 0x4830, symBinAddr: 0x100006748, symSize: 0x10 }
  - { offsetInCU: 0x1434F, offset: 0x1434F, size: 0x8, addend: 0x0, symName: __ZNSt3__117__compressed_pairIP10TransitionNS_9allocatorIS1_EEEC1B7v160006IDnS4_EEOT_OT0_, symObjAddr: 0x4840, symBinAddr: 0x100006758, symSize: 0x3C }
  - { offsetInCU: 0x143A7, offset: 0x143A7, size: 0x8, addend: 0x0, symName: __ZNSt3__16vectorI10TransitionNS_9allocatorIS1_EEE11__vallocateB7v160006Em, symObjAddr: 0x48BC, symBinAddr: 0x1000067D4, symSize: 0xB4 }
  - { offsetInCU: 0x143EB, offset: 0x143EB, size: 0x8, addend: 0x0, symName: __ZNSt3__16vectorI10TransitionNS_9allocatorIS1_EEE18__construct_at_endIPS1_Li0EEEvT_S7_m, symObjAddr: 0x4970, symBinAddr: 0x100006888, symSize: 0x94 }
  - { offsetInCU: 0x1445E, offset: 0x1445E, size: 0x8, addend: 0x0, symName: __ZNSt3__128__exception_guard_exceptionsINS_6vectorI10TransitionNS_9allocatorIS2_EEE16__destroy_vectorEE10__completeB7v160006Ev, symObjAddr: 0x4A04, symBinAddr: 0x10000691C, symSize: 0x1C }
  - { offsetInCU: 0x14484, offset: 0x14484, size: 0x8, addend: 0x0, symName: __ZNSt3__128__exception_guard_exceptionsINS_6vectorI10TransitionNS_9allocatorIS2_EEE16__destroy_vectorEED1B7v160006Ev, symObjAddr: 0x4A20, symBinAddr: 0x100006938, symSize: 0x2C }
  - { offsetInCU: 0x144AE, offset: 0x144AE, size: 0x8, addend: 0x0, symName: __ZNSt3__117__compressed_pairIP10TransitionNS_9allocatorIS1_EEEC2B7v160006IDnS4_EEOT_OT0_, symObjAddr: 0x4A4C, symBinAddr: 0x100006964, symSize: 0x44 }
  - { offsetInCU: 0x14506, offset: 0x14506, size: 0x8, addend: 0x0, symName: __ZNSt3__122__compressed_pair_elemINS_9allocatorI10TransitionEELi1ELb1EEC2B7v160006IS3_vEEOT_, symObjAddr: 0x4A90, symBinAddr: 0x1000069A8, symSize: 0x18 }
  - { offsetInCU: 0x14548, offset: 0x14548, size: 0x8, addend: 0x0, symName: __ZNSt3__128__exception_guard_exceptionsINS_6vectorI10TransitionNS_9allocatorIS2_EEE16__destroy_vectorEEC1B7v160006ES6_, symObjAddr: 0x4AA8, symBinAddr: 0x1000069C0, symSize: 0x34 }
  - { offsetInCU: 0x14580, offset: 0x14580, size: 0x8, addend: 0x0, symName: __ZNSt3__128__exception_guard_exceptionsINS_6vectorI10TransitionNS_9allocatorIS2_EEE16__destroy_vectorEEC2B7v160006ES6_, symObjAddr: 0x4ADC, symBinAddr: 0x1000069F4, symSize: 0x24 }
  - { offsetInCU: 0x145B8, offset: 0x145B8, size: 0x8, addend: 0x0, symName: __ZNSt3__129_AllocatorDestroyRangeReverseINS_9allocatorI10TransitionEEPS2_EC1B7v160006ERS3_RS4_S7_, symObjAddr: 0x4C48, symBinAddr: 0x100006B60, symSize: 0x44 }
  - { offsetInCU: 0x1460F, offset: 0x1460F, size: 0x8, addend: 0x0, symName: __ZNSt3__116allocator_traitsINS_9allocatorI10TransitionEEE9constructB7v160006IS2_JRS2_EvEEvRS3_PT_DpOT0_, symObjAddr: 0x4C8C, symBinAddr: 0x100006BA4, symSize: 0x34 }
  - { offsetInCU: 0x14666, offset: 0x14666, size: 0x8, addend: 0x0, symName: __ZNSt3__128__exception_guard_exceptionsINS_29_AllocatorDestroyRangeReverseINS_9allocatorI10TransitionEEPS3_EEE10__completeB7v160006Ev, symObjAddr: 0x4CC0, symBinAddr: 0x100006BD8, symSize: 0x1C }
  - { offsetInCU: 0x1468C, offset: 0x1468C, size: 0x8, addend: 0x0, symName: __ZNSt3__128__exception_guard_exceptionsINS_29_AllocatorDestroyRangeReverseINS_9allocatorI10TransitionEEPS3_EEED1B7v160006Ev, symObjAddr: 0x4CDC, symBinAddr: 0x100006BF4, symSize: 0x2C }
  - { offsetInCU: 0x146B6, offset: 0x146B6, size: 0x8, addend: 0x0, symName: __ZNSt3__128__exception_guard_exceptionsINS_29_AllocatorDestroyRangeReverseINS_9allocatorI10TransitionEEPS3_EEEC1B7v160006ES6_, symObjAddr: 0x4D08, symBinAddr: 0x100006C20, symSize: 0x34 }
  - { offsetInCU: 0x146EF, offset: 0x146EF, size: 0x8, addend: 0x0, symName: __ZNSt3__128__exception_guard_exceptionsINS_29_AllocatorDestroyRangeReverseINS_9allocatorI10TransitionEEPS3_EEEC2B7v160006ES6_, symObjAddr: 0x4D3C, symBinAddr: 0x100006C54, symSize: 0x30 }
  - { offsetInCU: 0x14728, offset: 0x14728, size: 0x8, addend: 0x0, symName: __ZNSt3__129_AllocatorDestroyRangeReverseINS_9allocatorI10TransitionEEPS2_EC2B7v160006ERS3_RS4_S7_, symObjAddr: 0x4D6C, symBinAddr: 0x100006C84, symSize: 0x38 }
  - { offsetInCU: 0x1477F, offset: 0x1477F, size: 0x8, addend: 0x0, symName: __ZNSt3__19allocatorI10TransitionE9constructB7v160006IS1_JRS1_EEEvPT_DpOT0_, symObjAddr: 0x4DA4, symBinAddr: 0x100006CBC, symSize: 0x30 }
  - { offsetInCU: 0x147D5, offset: 0x147D5, size: 0x8, addend: 0x0, symName: __ZNSt3__128__exception_guard_exceptionsINS_29_AllocatorDestroyRangeReverseINS_9allocatorI10TransitionEEPS3_EEED2B7v160006Ev, symObjAddr: 0x4DD4, symBinAddr: 0x100006CEC, symSize: 0x48 }
  - { offsetInCU: 0x147FF, offset: 0x147FF, size: 0x8, addend: 0x0, symName: __ZNKSt3__129_AllocatorDestroyRangeReverseINS_9allocatorI10TransitionEEPS2_EclB7v160006Ev, symObjAddr: 0x4E1C, symBinAddr: 0x100006D34, symSize: 0x68 }
  - { offsetInCU: 0x14825, offset: 0x14825, size: 0x8, addend: 0x0, symName: __ZNSt3__128__exception_guard_exceptionsINS_6vectorI10TransitionNS_9allocatorIS2_EEE16__destroy_vectorEED2B7v160006Ev, symObjAddr: 0x4EF4, symBinAddr: 0x100006E0C, symSize: 0x48 }
  - { offsetInCU: 0x1484F, offset: 0x1484F, size: 0x8, addend: 0x0, symName: __ZNSt3__16vectorI10TransitionNS_9allocatorIS1_EEE5beginB7v160006Ev, symObjAddr: 0x4F3C, symBinAddr: 0x100006E54, symSize: 0x30 }
  - { offsetInCU: 0x14877, offset: 0x14877, size: 0x8, addend: 0x0, symName: __ZNSt3__16vectorI10TransitionNS_9allocatorIS1_EEE3endB7v160006Ev, symObjAddr: 0x4F6C, symBinAddr: 0x100006E84, symSize: 0x30 }
  - { offsetInCU: 0x1489F, offset: 0x1489F, size: 0x8, addend: 0x0, symName: __ZNKSt3__111__wrap_iterIP10TransitionEdeB7v160006Ev, symObjAddr: 0x4FD0, symBinAddr: 0x100006EE8, symSize: 0x18 }
  - { offsetInCU: 0x148C5, offset: 0x148C5, size: 0x8, addend: 0x0, symName: __ZNSt3__111__wrap_iterIP10TransitionEppB7v160006Ev, symObjAddr: 0x4FE8, symBinAddr: 0x100006F00, symSize: 0x20 }
  - { offsetInCU: 0x148EB, offset: 0x148EB, size: 0x8, addend: 0x0, symName: __ZNSt3__16vectorI10TransitionNS_9allocatorIS1_EEE11__make_iterB7v160006EPS1_, symObjAddr: 0x5008, symBinAddr: 0x100006F20, symSize: 0x34 }
  - { offsetInCU: 0x14920, offset: 0x14920, size: 0x8, addend: 0x0, symName: __ZNSt3__111__wrap_iterIP10TransitionEC1B7v160006EPKvS2_, symObjAddr: 0x503C, symBinAddr: 0x100006F54, symSize: 0x3C }
  - { offsetInCU: 0x14966, offset: 0x14966, size: 0x8, addend: 0x0, symName: __ZNSt3__111__wrap_iterIP10TransitionEC2B7v160006EPKvS2_, symObjAddr: 0x5078, symBinAddr: 0x100006F90, symSize: 0x24 }
  - { offsetInCU: 0x149AC, offset: 0x149AC, size: 0x8, addend: 0x0, symName: __ZNKSt3__111__wrap_iterIP10TransitionE4baseB7v160006Ev, symObjAddr: 0x50E4, symBinAddr: 0x100006FFC, symSize: 0x18 }
  - { offsetInCU: 0x149D2, offset: 0x149D2, size: 0x8, addend: 0x0, symName: __ZNSt3__15stackI3NFANS_5dequeIS1_NS_9allocatorIS1_EEEEED2Ev, symObjAddr: 0x50FC, symBinAddr: 0x100007014, symSize: 0x2C }
  - { offsetInCU: 0x149FE, offset: 0x149FE, size: 0x8, addend: 0x0, symName: __ZNSt3__15dequeI3NFANS_9allocatorIS1_EEED1B7v160006Ev, symObjAddr: 0x5128, symBinAddr: 0x100007040, symSize: 0x2C }
  - { offsetInCU: 0x14A28, offset: 0x14A28, size: 0x8, addend: 0x0, symName: __ZNSt3__15dequeI3NFANS_9allocatorIS1_EEED2B7v160006Ev, symObjAddr: 0x5154, symBinAddr: 0x10000706C, symSize: 0x9C }
  - { offsetInCU: 0x14A7F, offset: 0x14A7F, size: 0x8, addend: 0x0, symName: __ZNSt3__15dequeI3NFANS_9allocatorIS1_EEE5clearEv, symObjAddr: 0x51F0, symBinAddr: 0x100007108, symSize: 0x194 }
  - { offsetInCU: 0x14AE3, offset: 0x14AE3, size: 0x8, addend: 0x0, symName: __ZNSt3__114__split_bufferIP3NFANS_9allocatorIS2_EEE5beginB7v160006Ev, symObjAddr: 0x5384, symBinAddr: 0x10000729C, symSize: 0x18 }
  - { offsetInCU: 0x14B09, offset: 0x14B09, size: 0x8, addend: 0x0, symName: __ZNSt3__114__split_bufferIP3NFANS_9allocatorIS2_EEE3endB7v160006Ev, symObjAddr: 0x539C, symBinAddr: 0x1000072B4, symSize: 0x18 }
  - { offsetInCU: 0x14B2F, offset: 0x14B2F, size: 0x8, addend: 0x0, symName: __ZNSt3__116allocator_traitsINS_9allocatorI3NFAEEE10deallocateB7v160006ERS3_PS2_m, symObjAddr: 0x53B4, symBinAddr: 0x1000072CC, symSize: 0x34 }
  - { offsetInCU: 0x14B71, offset: 0x14B71, size: 0x8, addend: 0x0, symName: __ZNSt3__15dequeI3NFANS_9allocatorIS1_EEE7__allocB7v160006Ev, symObjAddr: 0x53E8, symBinAddr: 0x100007300, symSize: 0x28 }
  - { offsetInCU: 0x14B97, offset: 0x14B97, size: 0x8, addend: 0x0, symName: __ZNSt3__114__split_bufferIP3NFANS_9allocatorIS2_EEED1Ev, symObjAddr: 0x5410, symBinAddr: 0x100007328, symSize: 0x2C }
  - { offsetInCU: 0x14BC3, offset: 0x14BC3, size: 0x8, addend: 0x0, symName: __ZNSt3__15dequeI3NFANS_9allocatorIS1_EEE5beginB7v160006Ev, symObjAddr: 0x543C, symBinAddr: 0x100007354, symSize: 0xD4 }
  - { offsetInCU: 0x14BF8, offset: 0x14BF8, size: 0x8, addend: 0x0, symName: __ZNSt3__15dequeI3NFANS_9allocatorIS1_EEE3endB7v160006Ev, symObjAddr: 0x5510, symBinAddr: 0x100007428, symSize: 0xC4 }
  - { offsetInCU: 0x14C3C, offset: 0x14C3C, size: 0x8, addend: 0x0, symName: __ZNSt3__116allocator_traitsINS_9allocatorI3NFAEEE7destroyB7v160006IS2_vEEvRS3_PT_, symObjAddr: 0x5608, symBinAddr: 0x100007520, symSize: 0x2C }
  - { offsetInCU: 0x14C79, offset: 0x14C79, size: 0x8, addend: 0x0, symName: __ZNKSt3__116__deque_iteratorI3NFAPS1_RS1_PS2_lLl102EEdeB7v160006Ev, symObjAddr: 0x5634, symBinAddr: 0x10000754C, symSize: 0x18 }
  - { offsetInCU: 0x14C9F, offset: 0x14C9F, size: 0x8, addend: 0x0, symName: __ZNSt3__116__deque_iteratorI3NFAPS1_RS1_PS2_lLl102EEppB7v160006Ev, symObjAddr: 0x564C, symBinAddr: 0x100007564, symSize: 0x70 }
  - { offsetInCU: 0x14CC5, offset: 0x14CC5, size: 0x8, addend: 0x0, symName: __ZNSt3__15dequeI3NFANS_9allocatorIS1_EEE6__sizeB7v160006Ev, symObjAddr: 0x56BC, symBinAddr: 0x1000075D4, symSize: 0x28 }
  - { offsetInCU: 0x14CEB, offset: 0x14CEB, size: 0x8, addend: 0x0, symName: __ZNKSt3__114__split_bufferIP3NFANS_9allocatorIS2_EEE4sizeB7v160006Ev, symObjAddr: 0x56E4, symBinAddr: 0x1000075FC, symSize: 0x28 }
  - { offsetInCU: 0x14D11, offset: 0x14D11, size: 0x8, addend: 0x0, symName: __ZNSt3__114__split_bufferIP3NFANS_9allocatorIS2_EEE5frontB7v160006Ev, symObjAddr: 0x570C, symBinAddr: 0x100007624, symSize: 0x18 }
  - { offsetInCU: 0x14D37, offset: 0x14D37, size: 0x8, addend: 0x0, symName: __ZNSt3__114__split_bufferIP3NFANS_9allocatorIS2_EEE9pop_frontB7v160006Ev, symObjAddr: 0x5724, symBinAddr: 0x10000763C, symSize: 0x2C }
  - { offsetInCU: 0x14D5D, offset: 0x14D5D, size: 0x8, addend: 0x0, symName: __ZNKSt3__114__split_bufferIP3NFANS_9allocatorIS2_EEE5emptyB7v160006Ev, symObjAddr: 0x5750, symBinAddr: 0x100007668, symSize: 0x28 }
  - { offsetInCU: 0x14D83, offset: 0x14D83, size: 0x8, addend: 0x0, symName: __ZNSt3__116__deque_iteratorI3NFAPS1_RS1_PS2_lLl102EEC1B7v160006ES4_S2_, symObjAddr: 0x5778, symBinAddr: 0x100007690, symSize: 0x3C }
  - { offsetInCU: 0x14DCB, offset: 0x14DCB, size: 0x8, addend: 0x0, symName: __ZNSt3__116__deque_iteratorI3NFAPS1_RS1_PS2_lLl102EEC2B7v160006ES4_S2_, symObjAddr: 0x57B4, symBinAddr: 0x1000076CC, symSize: 0x2C }
  - { offsetInCU: 0x14E13, offset: 0x14E13, size: 0x8, addend: 0x0, symName: __ZNKSt3__15dequeI3NFANS_9allocatorIS1_EEE4sizeB7v160006Ev, symObjAddr: 0x57E0, symBinAddr: 0x1000076F8, symSize: 0x28 }
  - { offsetInCU: 0x14E39, offset: 0x14E39, size: 0x8, addend: 0x0, symName: __ZNKSt3__15dequeI3NFANS_9allocatorIS1_EEE6__sizeB7v160006Ev, symObjAddr: 0x5808, symBinAddr: 0x100007720, symSize: 0x28 }
  - { offsetInCU: 0x14E5F, offset: 0x14E5F, size: 0x8, addend: 0x0, symName: __ZNKSt3__117__compressed_pairImNS_9allocatorI3NFAEEE5firstB7v160006Ev, symObjAddr: 0x5830, symBinAddr: 0x100007748, symSize: 0x24 }
  - { offsetInCU: 0x14E85, offset: 0x14E85, size: 0x8, addend: 0x0, symName: __ZNSt3__19allocatorI3NFAE7destroyB7v160006EPS1_, symObjAddr: 0x5884, symBinAddr: 0x10000779C, symSize: 0x28 }
  - { offsetInCU: 0x14EB9, offset: 0x14EB9, size: 0x8, addend: 0x0, symName: __ZNSt3__117__compressed_pairImNS_9allocatorI3NFAEEE5firstB7v160006Ev, symObjAddr: 0x58AC, symBinAddr: 0x1000077C4, symSize: 0x24 }
  - { offsetInCU: 0x14EDF, offset: 0x14EDF, size: 0x8, addend: 0x0, symName: __ZNSt3__114__split_bufferIP3NFANS_9allocatorIS2_EEE19__destruct_at_beginB7v160006EPS2_, symObjAddr: 0x58D0, symBinAddr: 0x1000077E8, symSize: 0x2C }
  - { offsetInCU: 0x14F13, offset: 0x14F13, size: 0x8, addend: 0x0, symName: __ZNSt3__114__split_bufferIP3NFANS_9allocatorIS2_EEE19__destruct_at_beginEPS2_NS_17integral_constantIbLb1EEE, symObjAddr: 0x58FC, symBinAddr: 0x100007814, symSize: 0x20 }
  - { offsetInCU: 0x14F53, offset: 0x14F53, size: 0x8, addend: 0x0, symName: __ZNSt3__19allocatorI3NFAE10deallocateB7v160006EPS1_m, symObjAddr: 0x591C, symBinAddr: 0x100007834, symSize: 0x74 }
  - { offsetInCU: 0x14F95, offset: 0x14F95, size: 0x8, addend: 0x0, symName: __ZNSt3__117__compressed_pairImNS_9allocatorI3NFAEEE6secondB7v160006Ev, symObjAddr: 0x5990, symBinAddr: 0x1000078A8, symSize: 0x24 }
  - { offsetInCU: 0x14FBB, offset: 0x14FBB, size: 0x8, addend: 0x0, symName: __ZNSt3__122__compressed_pair_elemINS_9allocatorI3NFAEELi1ELb1EE5__getB7v160006Ev, symObjAddr: 0x59B4, symBinAddr: 0x1000078CC, symSize: 0x14 }
  - { offsetInCU: 0x14FE1, offset: 0x14FE1, size: 0x8, addend: 0x0, symName: __ZNSt3__114__split_bufferIP3NFANS_9allocatorIS2_EEED2Ev, symObjAddr: 0x59C8, symBinAddr: 0x1000078E0, symSize: 0x80 }
  - { offsetInCU: 0x1500D, offset: 0x1500D, size: 0x8, addend: 0x0, symName: __ZNSt3__114__split_bufferIP3NFANS_9allocatorIS2_EEE5clearB7v160006Ev, symObjAddr: 0x5A48, symBinAddr: 0x100007960, symSize: 0x28 }
  - { offsetInCU: 0x15033, offset: 0x15033, size: 0x8, addend: 0x0, symName: __ZNSt3__116allocator_traitsINS_9allocatorIP3NFAEEE10deallocateB7v160006ERS4_PS3_m, symObjAddr: 0x5A70, symBinAddr: 0x100007988, symSize: 0x34 }
  - { offsetInCU: 0x15075, offset: 0x15075, size: 0x8, addend: 0x0, symName: __ZNSt3__114__split_bufferIP3NFANS_9allocatorIS2_EEE7__allocB7v160006Ev, symObjAddr: 0x5AA4, symBinAddr: 0x1000079BC, symSize: 0x28 }
  - { offsetInCU: 0x1509B, offset: 0x1509B, size: 0x8, addend: 0x0, symName: __ZNKSt3__114__split_bufferIP3NFANS_9allocatorIS2_EEE8capacityB7v160006Ev, symObjAddr: 0x5ACC, symBinAddr: 0x1000079E4, symSize: 0x40 }
  - { offsetInCU: 0x150C1, offset: 0x150C1, size: 0x8, addend: 0x0, symName: __ZNSt3__114__split_bufferIP3NFANS_9allocatorIS2_EEE17__destruct_at_endB7v160006EPS2_, symObjAddr: 0x5B0C, symBinAddr: 0x100007A24, symSize: 0x2C }
  - { offsetInCU: 0x150F5, offset: 0x150F5, size: 0x8, addend: 0x0, symName: __ZNSt3__114__split_bufferIP3NFANS_9allocatorIS2_EEE17__destruct_at_endB7v160006EPS2_NS_17integral_constantIbLb0EEE, symObjAddr: 0x5B38, symBinAddr: 0x100007A50, symSize: 0x94 }
  - { offsetInCU: 0x15135, offset: 0x15135, size: 0x8, addend: 0x0, symName: __ZNSt3__116allocator_traitsINS_9allocatorIP3NFAEEE7destroyB7v160006IS3_vEEvRS4_PT_, symObjAddr: 0x5BCC, symBinAddr: 0x100007AE4, symSize: 0x2C }
  - { offsetInCU: 0x15172, offset: 0x15172, size: 0x8, addend: 0x0, symName: __ZNSt3__19allocatorIP3NFAE7destroyB7v160006EPS2_, symObjAddr: 0x5C0C, symBinAddr: 0x100007B24, symSize: 0x14 }
  - { offsetInCU: 0x151A6, offset: 0x151A6, size: 0x8, addend: 0x0, symName: __ZNSt3__19allocatorIP3NFAE10deallocateB7v160006EPS2_m, symObjAddr: 0x5C20, symBinAddr: 0x100007B38, symSize: 0x70 }
  - { offsetInCU: 0x151E8, offset: 0x151E8, size: 0x8, addend: 0x0, symName: __ZNSt3__117__compressed_pairIPP3NFANS_9allocatorIS2_EEE6secondB7v160006Ev, symObjAddr: 0x5C90, symBinAddr: 0x100007BA8, symSize: 0x24 }
  - { offsetInCU: 0x1520E, offset: 0x1520E, size: 0x8, addend: 0x0, symName: __ZNSt3__122__compressed_pair_elemINS_9allocatorIP3NFAEELi1ELb1EE5__getB7v160006Ev, symObjAddr: 0x5CB4, symBinAddr: 0x100007BCC, symSize: 0x14 }
  - { offsetInCU: 0x15234, offset: 0x15234, size: 0x8, addend: 0x0, symName: __ZNKSt3__114__split_bufferIP3NFANS_9allocatorIS2_EEE9__end_capB7v160006Ev, symObjAddr: 0x5CC8, symBinAddr: 0x100007BE0, symSize: 0x28 }
  - { offsetInCU: 0x1525A, offset: 0x1525A, size: 0x8, addend: 0x0, symName: __ZNKSt3__117__compressed_pairIPP3NFANS_9allocatorIS2_EEE5firstB7v160006Ev, symObjAddr: 0x5CF0, symBinAddr: 0x100007C08, symSize: 0x24 }
  - { offsetInCU: 0x15280, offset: 0x15280, size: 0x8, addend: 0x0, symName: __ZNKSt3__122__compressed_pair_elemIPP3NFALi0ELb0EE5__getB7v160006Ev, symObjAddr: 0x5D14, symBinAddr: 0x100007C2C, symSize: 0x14 }
  - { offsetInCU: 0x152A6, offset: 0x152A6, size: 0x8, addend: 0x0, symName: __ZNSt3__112basic_stringIcNS_11char_traitsIcEENS_9allocatorIcEEEC2B7v160006Ev, symObjAddr: 0x5D28, symBinAddr: 0x100007C40, symSize: 0x44 }
  - { offsetInCU: 0x152D0, offset: 0x152D0, size: 0x8, addend: 0x0, symName: __ZNSt3__117__compressed_pairINS_12basic_stringIcNS_11char_traitsIcEENS_9allocatorIcEEE5__repES5_EC1B7v160006INS_18__default_init_tagESA_EEOT_OT0_, symObjAddr: 0x5D6C, symBinAddr: 0x100007C84, symSize: 0x3C }
  - { offsetInCU: 0x15328, offset: 0x15328, size: 0x8, addend: 0x0, symName: __ZNSt3__112basic_stringIcNS_11char_traitsIcEENS_9allocatorIcEEE14__default_initB7v160006Ev, symObjAddr: 0x5DB8, symBinAddr: 0x100007CD0, symSize: 0xB0 }
  - { offsetInCU: 0x1537B, offset: 0x1537B, size: 0x8, addend: 0x0, symName: __ZNSt3__117__compressed_pairINS_12basic_stringIcNS_11char_traitsIcEENS_9allocatorIcEEE5__repES5_EC2B7v160006INS_18__default_init_tagESA_EEOT_OT0_, symObjAddr: 0x5E68, symBinAddr: 0x100007D80, symSize: 0x3C }
  - { offsetInCU: 0x153D3, offset: 0x153D3, size: 0x8, addend: 0x0, symName: __ZNSt3__122__compressed_pair_elemINS_12basic_stringIcNS_11char_traitsIcEENS_9allocatorIcEEE5__repELi0ELb0EEC2B7v160006ENS_18__default_init_tagE, symObjAddr: 0x5EA4, symBinAddr: 0x100007DBC, symSize: 0x14 }
  - { offsetInCU: 0x15407, offset: 0x15407, size: 0x8, addend: 0x0, symName: __ZNSt3__122__compressed_pair_elemINS_9allocatorIcEELi1ELb1EEC2B7v160006ENS_18__default_init_tagE, symObjAddr: 0x5EB8, symBinAddr: 0x100007DD0, symSize: 0x2C }
  - { offsetInCU: 0x1543B, offset: 0x1543B, size: 0x8, addend: 0x0, symName: __ZNSt3__19allocatorIcEC2B7v160006Ev, symObjAddr: 0x5EE4, symBinAddr: 0x100007DFC, symSize: 0x2C }
  - { offsetInCU: 0x15465, offset: 0x15465, size: 0x8, addend: 0x0, symName: __ZNSt3__116__non_trivial_ifILb1ENS_9allocatorIcEEEC2B7v160006Ev, symObjAddr: 0x5F10, symBinAddr: 0x100007E28, symSize: 0x14 }
  - { offsetInCU: 0x1548F, offset: 0x1548F, size: 0x8, addend: 0x0, symName: __ZNSt3__117__compressed_pairINS_12basic_stringIcNS_11char_traitsIcEENS_9allocatorIcEEE5__repES5_E5firstB7v160006Ev, symObjAddr: 0x5F24, symBinAddr: 0x100007E3C, symSize: 0x24 }
  - { offsetInCU: 0x154B5, offset: 0x154B5, size: 0x8, addend: 0x0, symName: __ZNSt3__112basic_stringIcNS_11char_traitsIcEENS_9allocatorIcEEE11__recommendB7v160006Em, symObjAddr: 0x5F48, symBinAddr: 0x100007E60, symSize: 0x9C }
  - { offsetInCU: 0x154E8, offset: 0x154E8, size: 0x8, addend: 0x0, symName: __ZNSt3__116allocator_traitsINS_9allocatorIcEEE8allocateB7v160006ERS2_m, symObjAddr: 0x5FE4, symBinAddr: 0x100007EFC, symSize: 0x2C }
  - { offsetInCU: 0x1551B, offset: 0x1551B, size: 0x8, addend: 0x0, symName: __ZNSt3__112basic_stringIcNS_11char_traitsIcEENS_9allocatorIcEEE7__allocB7v160006Ev, symObjAddr: 0x6010, symBinAddr: 0x100007F28, symSize: 0x24 }
  - { offsetInCU: 0x15541, offset: 0x15541, size: 0x8, addend: 0x0, symName: __ZNSt3__112basic_stringIcNS_11char_traitsIcEENS_9allocatorIcEEE16__begin_lifetimeB7v160006EPcm, symObjAddr: 0x6034, symBinAddr: 0x100007F4C, symSize: 0x14 }
  - { offsetInCU: 0x15574, offset: 0x15574, size: 0x8, addend: 0x0, symName: __ZNSt3__112basic_stringIcNS_11char_traitsIcEENS_9allocatorIcEEE18__set_long_pointerB7v160006EPc, symObjAddr: 0x6048, symBinAddr: 0x100007F60, symSize: 0x38 }
  - { offsetInCU: 0x155A9, offset: 0x155A9, size: 0x8, addend: 0x0, symName: __ZNSt3__112basic_stringIcNS_11char_traitsIcEENS_9allocatorIcEEE14__set_long_capB7v160006Em, symObjAddr: 0x6080, symBinAddr: 0x100007F98, symSize: 0x70 }
  - { offsetInCU: 0x155DE, offset: 0x155DE, size: 0x8, addend: 0x0, symName: __ZNSt3__112basic_stringIcNS_11char_traitsIcEENS_9allocatorIcEEE15__set_long_sizeB7v160006Em, symObjAddr: 0x60F0, symBinAddr: 0x100008008, symSize: 0x38 }
  - { offsetInCU: 0x15613, offset: 0x15613, size: 0x8, addend: 0x0, symName: __ZNSt3__122__compressed_pair_elemINS_12basic_stringIcNS_11char_traitsIcEENS_9allocatorIcEEE5__repELi0ELb0EE5__getB7v160006Ev, symObjAddr: 0x6128, symBinAddr: 0x100008040, symSize: 0x14 }
  - { offsetInCU: 0x15639, offset: 0x15639, size: 0x8, addend: 0x0, symName: __ZNSt3__112basic_stringIcNS_11char_traitsIcEENS_9allocatorIcEEE10__align_itB7v160006ILm16EEEmm, symObjAddr: 0x613C, symBinAddr: 0x100008054, symSize: 0x1C }
  - { offsetInCU: 0x15667, offset: 0x15667, size: 0x8, addend: 0x0, symName: __ZNSt3__19allocatorIcE8allocateB7v160006Em, symObjAddr: 0x6158, symBinAddr: 0x100008070, symSize: 0x84 }
  - { offsetInCU: 0x156A5, offset: 0x156A5, size: 0x8, addend: 0x0, symName: __ZNSt3__116allocator_traitsINS_9allocatorIcEEE8max_sizeB7v160006IS2_vEEmRKS2_, symObjAddr: 0x61DC, symBinAddr: 0x1000080F4, symSize: 0x24 }
  - { offsetInCU: 0x156D3, offset: 0x156D3, size: 0x8, addend: 0x0, symName: __ZNKSt3__19allocatorIcE8max_sizeB7v160006Ev, symObjAddr: 0x6200, symBinAddr: 0x100008118, symSize: 0x14 }
  - { offsetInCU: 0x156F9, offset: 0x156F9, size: 0x8, addend: 0x0, symName: __ZNSt3__117__compressed_pairINS_12basic_stringIcNS_11char_traitsIcEENS_9allocatorIcEEE5__repES5_E6secondB7v160006Ev, symObjAddr: 0x6214, symBinAddr: 0x10000812C, symSize: 0x24 }
  - { offsetInCU: 0x1571F, offset: 0x1571F, size: 0x8, addend: 0x0, symName: __ZNSt3__15stackIcNS_5dequeIcNS_9allocatorIcEEEEEC2B7v160006Ev, symObjAddr: 0x6238, symBinAddr: 0x100008150, symSize: 0x2C }
  - { offsetInCU: 0x15749, offset: 0x15749, size: 0x8, addend: 0x0, symName: __ZNSt3__15dequeIcNS_9allocatorIcEEEC1B7v160006Ev, symObjAddr: 0x6264, symBinAddr: 0x10000817C, symSize: 0x2C }
  - { offsetInCU: 0x15773, offset: 0x15773, size: 0x8, addend: 0x0, symName: __ZNSt3__15dequeIcNS_9allocatorIcEEEC2B7v160006Ev, symObjAddr: 0x6290, symBinAddr: 0x1000081A8, symSize: 0x78 }
  - { offsetInCU: 0x1579D, offset: 0x1579D, size: 0x8, addend: 0x0, symName: __ZNSt3__114__split_bufferIPcNS_9allocatorIS1_EEEC1Ev, symObjAddr: 0x6308, symBinAddr: 0x100008220, symSize: 0x2C }
  - { offsetInCU: 0x157CF, offset: 0x157CF, size: 0x8, addend: 0x0, symName: __ZNSt3__117__compressed_pairImNS_9allocatorIcEEEC1B7v160006IiNS_18__default_init_tagEEEOT_OT0_, symObjAddr: 0x6334, symBinAddr: 0x10000824C, symSize: 0x3C }
  - { offsetInCU: 0x15827, offset: 0x15827, size: 0x8, addend: 0x0, symName: __ZNSt3__114__split_bufferIPcNS_9allocatorIS1_EEEC2Ev, symObjAddr: 0x6370, symBinAddr: 0x100008288, symSize: 0x48 }
  - { offsetInCU: 0x15853, offset: 0x15853, size: 0x8, addend: 0x0, symName: __ZNSt3__117__compressed_pairIPPcNS_9allocatorIS1_EEEC1B7v160006IDnNS_18__default_init_tagEEEOT_OT0_, symObjAddr: 0x63B8, symBinAddr: 0x1000082D0, symSize: 0x3C }
  - { offsetInCU: 0x158AB, offset: 0x158AB, size: 0x8, addend: 0x0, symName: __ZNSt3__117__compressed_pairIPPcNS_9allocatorIS1_EEEC2B7v160006IDnNS_18__default_init_tagEEEOT_OT0_, symObjAddr: 0x63F4, symBinAddr: 0x10000830C, symSize: 0x40 }
  - { offsetInCU: 0x15903, offset: 0x15903, size: 0x8, addend: 0x0, symName: __ZNSt3__122__compressed_pair_elemIPPcLi0ELb0EEC2B7v160006IDnvEEOT_, symObjAddr: 0x6434, symBinAddr: 0x10000834C, symSize: 0x1C }
  - { offsetInCU: 0x15945, offset: 0x15945, size: 0x8, addend: 0x0, symName: __ZNSt3__122__compressed_pair_elemINS_9allocatorIPcEELi1ELb1EEC2B7v160006ENS_18__default_init_tagE, symObjAddr: 0x6450, symBinAddr: 0x100008368, symSize: 0x2C }
  - { offsetInCU: 0x15979, offset: 0x15979, size: 0x8, addend: 0x0, symName: __ZNSt3__19allocatorIPcEC2B7v160006Ev, symObjAddr: 0x647C, symBinAddr: 0x100008394, symSize: 0x2C }
  - { offsetInCU: 0x159A3, offset: 0x159A3, size: 0x8, addend: 0x0, symName: __ZNSt3__116__non_trivial_ifILb1ENS_9allocatorIPcEEEC2B7v160006Ev, symObjAddr: 0x64A8, symBinAddr: 0x1000083C0, symSize: 0x14 }
  - { offsetInCU: 0x159CD, offset: 0x159CD, size: 0x8, addend: 0x0, symName: __ZNSt3__117__compressed_pairImNS_9allocatorIcEEEC2B7v160006IiNS_18__default_init_tagEEEOT_OT0_, symObjAddr: 0x64BC, symBinAddr: 0x1000083D4, symSize: 0x40 }
  - { offsetInCU: 0x15A25, offset: 0x15A25, size: 0x8, addend: 0x0, symName: __ZNSt3__122__compressed_pair_elemImLi0ELb0EEC2B7v160006IivEEOT_, symObjAddr: 0x64FC, symBinAddr: 0x100008414, symSize: 0x24 }
  - { offsetInCU: 0x15A67, offset: 0x15A67, size: 0x8, addend: 0x0, symName: __ZNKSt3__112basic_stringIcNS_11char_traitsIcEENS_9allocatorIcEEE4sizeB7v160006Ev, symObjAddr: 0x6520, symBinAddr: 0x100008438, symSize: 0x54 }
  - { offsetInCU: 0x15A8D, offset: 0x15A8D, size: 0x8, addend: 0x0, symName: __ZNKSt3__112basic_stringIcNS_11char_traitsIcEENS_9allocatorIcEEE9__is_longB7v160006Ev, symObjAddr: 0x6574, symBinAddr: 0x10000848C, symSize: 0x74 }
  - { offsetInCU: 0x15AB3, offset: 0x15AB3, size: 0x8, addend: 0x0, symName: __ZNKSt3__112basic_stringIcNS_11char_traitsIcEENS_9allocatorIcEEE15__get_long_sizeB7v160006Ev, symObjAddr: 0x65E8, symBinAddr: 0x100008500, symSize: 0x28 }
  - { offsetInCU: 0x15AD9, offset: 0x15AD9, size: 0x8, addend: 0x0, symName: __ZNKSt3__112basic_stringIcNS_11char_traitsIcEENS_9allocatorIcEEE16__get_short_sizeB7v160006Ev, symObjAddr: 0x6610, symBinAddr: 0x100008528, symSize: 0x34 }
  - { offsetInCU: 0x15AFF, offset: 0x15AFF, size: 0x8, addend: 0x0, symName: __ZNKSt3__117__compressed_pairINS_12basic_stringIcNS_11char_traitsIcEENS_9allocatorIcEEE5__repES5_E5firstB7v160006Ev, symObjAddr: 0x6644, symBinAddr: 0x10000855C, symSize: 0x24 }
  - { offsetInCU: 0x15B25, offset: 0x15B25, size: 0x8, addend: 0x0, symName: __ZNKSt3__122__compressed_pair_elemINS_12basic_stringIcNS_11char_traitsIcEENS_9allocatorIcEEE5__repELi0ELb0EE5__getB7v160006Ev, symObjAddr: 0x6668, symBinAddr: 0x100008580, symSize: 0x14 }
  - { offsetInCU: 0x15B4B, offset: 0x15B4B, size: 0x8, addend: 0x0, symName: __ZNSt3__112basic_stringIcNS_11char_traitsIcEENS_9allocatorIcEEE13__get_pointerB7v160006Ev, symObjAddr: 0x667C, symBinAddr: 0x100008594, symSize: 0x54 }
  - { offsetInCU: 0x15B71, offset: 0x15B71, size: 0x8, addend: 0x0, symName: __ZNSt3__112basic_stringIcNS_11char_traitsIcEENS_9allocatorIcEEE18__get_long_pointerB7v160006Ev, symObjAddr: 0x66D0, symBinAddr: 0x1000085E8, symSize: 0x28 }
  - { offsetInCU: 0x15B97, offset: 0x15B97, size: 0x8, addend: 0x0, symName: __ZNSt3__112basic_stringIcNS_11char_traitsIcEENS_9allocatorIcEEE19__get_short_pointerB7v160006Ev, symObjAddr: 0x66F8, symBinAddr: 0x100008610, symSize: 0x28 }
  - { offsetInCU: 0x15BBD, offset: 0x15BBD, size: 0x8, addend: 0x0, symName: __ZNSt3__114pointer_traitsIPcE10pointer_toB7v160006ERc, symObjAddr: 0x6720, symBinAddr: 0x100008638, symSize: 0x14 }
  - { offsetInCU: 0x15BE0, offset: 0x15BE0, size: 0x8, addend: 0x0, symName: __ZNSt3__15dequeIcNS_9allocatorIcEEE9push_backERKc, symObjAddr: 0x6734, symBinAddr: 0x10000864C, symSize: 0xA0 }
  - { offsetInCU: 0x15C26, offset: 0x15C26, size: 0x8, addend: 0x0, symName: __ZNKSt3__15dequeIcNS_9allocatorIcEEE12__back_spareB7v160006Ev, symObjAddr: 0x67D4, symBinAddr: 0x1000086EC, symSize: 0x54 }
  - { offsetInCU: 0x15C4C, offset: 0x15C4C, size: 0x8, addend: 0x0, symName: __ZNSt3__15dequeIcNS_9allocatorIcEEE19__add_back_capacityEv, symObjAddr: 0x6828, symBinAddr: 0x100008740, symSize: 0x32C }
  - { offsetInCU: 0x15D04, offset: 0x15D04, size: 0x8, addend: 0x0, symName: __ZNSt3__116allocator_traitsINS_9allocatorIcEEE9constructB7v160006IcJRKcEvEEvRS2_PT_DpOT0_, symObjAddr: 0x6B54, symBinAddr: 0x100008A6C, symSize: 0x34 }
  - { offsetInCU: 0x15D5B, offset: 0x15D5B, size: 0x8, addend: 0x0, symName: __ZNKSt3__15dequeIcNS_9allocatorIcEEE10__capacityB7v160006Ev, symObjAddr: 0x6B88, symBinAddr: 0x100008AA0, symSize: 0x60 }
  - { offsetInCU: 0x15D81, offset: 0x15D81, size: 0x8, addend: 0x0, symName: __ZNKSt3__15dequeIcNS_9allocatorIcEEE13__front_spareB7v160006Ev, symObjAddr: 0x6BE8, symBinAddr: 0x100008B00, symSize: 0x18 }
  - { offsetInCU: 0x15DA7, offset: 0x15DA7, size: 0x8, addend: 0x0, symName: __ZNSt3__114__split_bufferIPcNS_9allocatorIS1_EEE9push_backB7v160006ERKS1_, symObjAddr: 0x6C00, symBinAddr: 0x100008B18, symSize: 0x270 }
  - { offsetInCU: 0x15E20, offset: 0x15E20, size: 0x8, addend: 0x0, symName: __ZNKSt3__114__split_bufferIPcNS_9allocatorIS1_EEE12__back_spareB7v160006Ev, symObjAddr: 0x6E70, symBinAddr: 0x100008D88, symSize: 0x40 }
  - { offsetInCU: 0x15E46, offset: 0x15E46, size: 0x8, addend: 0x0, symName: __ZNSt3__114__split_bufferIPcNS_9allocatorIS1_EEE9push_backEOS1_, symObjAddr: 0x6EB0, symBinAddr: 0x100008DC8, symSize: 0x270 }
  - { offsetInCU: 0x15EBF, offset: 0x15EBF, size: 0x8, addend: 0x0, symName: __ZNSt3__114__split_bufferIPcNS_9allocatorIS1_EEE10push_frontEOS1_, symObjAddr: 0x7120, symBinAddr: 0x100009038, symSize: 0x26C }
  - { offsetInCU: 0x15F38, offset: 0x15F38, size: 0x8, addend: 0x0, symName: __ZNSt3__114__split_bufferIPcRNS_9allocatorIS1_EEEC1EmmS4_, symObjAddr: 0x738C, symBinAddr: 0x1000092A4, symSize: 0x44 }
  - { offsetInCU: 0x15F93, offset: 0x15F93, size: 0x8, addend: 0x0, symName: __ZNSt3__122__allocator_destructorINS_9allocatorIcEEEC1B7v160006ERS2_m, symObjAddr: 0x73D0, symBinAddr: 0x1000092E8, symSize: 0x3C }
  - { offsetInCU: 0x1605D, offset: 0x1605D, size: 0x8, addend: 0x0, symName: __ZNSt3__110unique_ptrIPcNS_22__allocator_destructorINS_9allocatorIcEEEEEC1B7v160006ILb1EvEES1_NS_16__dependent_typeINS_27__unique_ptr_deleter_sfinaeIS5_EEXT_EE20__good_rval_ref_typeE, symObjAddr: 0x740C, symBinAddr: 0x100009324, symSize: 0x3C }
  - { offsetInCU: 0x160AE, offset: 0x160AE, size: 0x8, addend: 0x0, symName: __ZNSt3__114__split_bufferIPcRNS_9allocatorIS1_EEE9push_backEOS1_, symObjAddr: 0x7448, symBinAddr: 0x100009360, symSize: 0x270 }
  - { offsetInCU: 0x16127, offset: 0x16127, size: 0x8, addend: 0x0, symName: __ZNKSt3__110unique_ptrIPcNS_22__allocator_destructorINS_9allocatorIcEEEEE3getB7v160006Ev, symObjAddr: 0x76B8, symBinAddr: 0x1000095D0, symSize: 0x28 }
  - { offsetInCU: 0x1614D, offset: 0x1614D, size: 0x8, addend: 0x0, symName: __ZNSt3__110unique_ptrIPcNS_22__allocator_destructorINS_9allocatorIcEEEEE7releaseB7v160006Ev, symObjAddr: 0x76E0, symBinAddr: 0x1000095F8, symSize: 0x44 }
  - { offsetInCU: 0x16182, offset: 0x16182, size: 0x8, addend: 0x0, symName: __ZNSt3__114__split_bufferIPcRNS_9allocatorIS1_EEE10push_frontERKS1_, symObjAddr: 0x7724, symBinAddr: 0x10000963C, symSize: 0x26C }
  - { offsetInCU: 0x161FB, offset: 0x161FB, size: 0x8, addend: 0x0, symName: __ZNSt3__114__split_bufferIPcNS_9allocatorIS1_EEE9__end_capB7v160006Ev, symObjAddr: 0x79CC, symBinAddr: 0x1000098E4, symSize: 0x28 }
  - { offsetInCU: 0x16221, offset: 0x16221, size: 0x8, addend: 0x0, symName: __ZNSt3__114__split_bufferIPcRNS_9allocatorIS1_EEE9__end_capB7v160006Ev, symObjAddr: 0x79F4, symBinAddr: 0x10000990C, symSize: 0x28 }
  - { offsetInCU: 0x16247, offset: 0x16247, size: 0x8, addend: 0x0, symName: __ZNSt3__110unique_ptrIPcNS_22__allocator_destructorINS_9allocatorIcEEEEED1B7v160006Ev, symObjAddr: 0x7A1C, symBinAddr: 0x100009934, symSize: 0x2C }
  - { offsetInCU: 0x16271, offset: 0x16271, size: 0x8, addend: 0x0, symName: __ZNSt3__114__split_bufferIPcRNS_9allocatorIS1_EEED1Ev, symObjAddr: 0x7A48, symBinAddr: 0x100009960, symSize: 0x2C }
  - { offsetInCU: 0x1629D, offset: 0x1629D, size: 0x8, addend: 0x0, symName: __ZNSt3__114__split_bufferIPcRNS_9allocatorIS1_EEE18__construct_at_endINS_13move_iteratorIPS1_EEEENS_9enable_ifIXsr27__is_cpp17_forward_iteratorIT_EE5valueEvE4typeESB_SB_, symObjAddr: 0x7AB4, symBinAddr: 0x1000099CC, symSize: 0x104 }
  - { offsetInCU: 0x162F9, offset: 0x162F9, size: 0x8, addend: 0x0, symName: __ZNSt3__113move_iteratorIPPcEC1B7v160006ES2_, symObjAddr: 0x7BB8, symBinAddr: 0x100009AD0, symSize: 0x34 }
  - { offsetInCU: 0x16331, offset: 0x16331, size: 0x8, addend: 0x0, symName: __ZNSt3__116allocator_traitsINS_9allocatorIPcEEE9constructB7v160006IS2_JRKS2_EvEEvRS3_PT_DpOT0_, symObjAddr: 0x7BEC, symBinAddr: 0x100009B04, symSize: 0x34 }
  - { offsetInCU: 0x163AC, offset: 0x163AC, size: 0x8, addend: 0x0, symName: __ZNKSt3__114__move_trivialclB7v160006IPcS2_Li0EEENS_4pairIPT_PT0_EES5_S5_S7_, symObjAddr: 0x7DCC, symBinAddr: 0x100009CE4, symSize: 0x48 }
  - { offsetInCU: 0x16414, offset: 0x16414, size: 0x8, addend: 0x0, symName: __ZNSt3__14pairIPPcS2_EC1B7v160006ERKS2_S5_, symObjAddr: 0x7FA8, symBinAddr: 0x100009EC0, symSize: 0x3C }
  - { offsetInCU: 0x1645A, offset: 0x1645A, size: 0x8, addend: 0x0, symName: __ZNSt3__14pairIPPcS2_EC2B7v160006ERKS2_S5_, symObjAddr: 0x7FE4, symBinAddr: 0x100009EFC, symSize: 0x34 }
  - { offsetInCU: 0x164A0, offset: 0x164A0, size: 0x8, addend: 0x0, symName: __ZNSt3__118__unwrap_iter_implIPPcLb1EE8__unwrapB7v160006ES2_, symObjAddr: 0x8018, symBinAddr: 0x100009F30, symSize: 0x24 }
  - { offsetInCU: 0x164C3, offset: 0x164C3, size: 0x8, addend: 0x0, symName: __ZNSt3__118__unwrap_iter_implIPPcLb1EE8__rewrapB7v160006ES2_S2_, symObjAddr: 0x803C, symBinAddr: 0x100009F54, symSize: 0x50 }
  - { offsetInCU: 0x164FE, offset: 0x164FE, size: 0x8, addend: 0x0, symName: __ZNSt3__114__split_bufferIPcRNS_9allocatorIS1_EEE21_ConstructTransactionC1B7v160006EPPS1_m, symObjAddr: 0x80C8, symBinAddr: 0x100009FE0, symSize: 0x3C }
  - { offsetInCU: 0x16544, offset: 0x16544, size: 0x8, addend: 0x0, symName: __ZNSt3__116allocator_traitsINS_9allocatorIPcEEE9constructB7v160006IS2_JS2_EvEEvRS3_PT_DpOT0_, symObjAddr: 0x8104, symBinAddr: 0x10000A01C, symSize: 0x34 }
  - { offsetInCU: 0x1659B, offset: 0x1659B, size: 0x8, addend: 0x0, symName: __ZNSt3__114__split_bufferIPcRNS_9allocatorIS1_EEE7__allocB7v160006Ev, symObjAddr: 0x8138, symBinAddr: 0x10000A050, symSize: 0x28 }
  - { offsetInCU: 0x165C1, offset: 0x165C1, size: 0x8, addend: 0x0, symName: __ZNKSt3__113move_iteratorIPPcEdeB7v160006Ev, symObjAddr: 0x8160, symBinAddr: 0x10000A078, symSize: 0x18 }
  - { offsetInCU: 0x165E7, offset: 0x165E7, size: 0x8, addend: 0x0, symName: __ZNSt3__113move_iteratorIPPcEppB7v160006Ev, symObjAddr: 0x8178, symBinAddr: 0x10000A090, symSize: 0x20 }
  - { offsetInCU: 0x1660D, offset: 0x1660D, size: 0x8, addend: 0x0, symName: __ZNSt3__114__split_bufferIPcRNS_9allocatorIS1_EEE21_ConstructTransactionD1B7v160006Ev, symObjAddr: 0x8198, symBinAddr: 0x10000A0B0, symSize: 0x2C }
  - { offsetInCU: 0x16637, offset: 0x16637, size: 0x8, addend: 0x0, symName: __ZNKSt3__113move_iteratorIPPcE4baseB7v160006Ev, symObjAddr: 0x823C, symBinAddr: 0x10000A154, symSize: 0x18 }
  - { offsetInCU: 0x1665D, offset: 0x1665D, size: 0x8, addend: 0x0, symName: __ZNSt3__114__split_bufferIPcRNS_9allocatorIS1_EEE21_ConstructTransactionC2B7v160006EPPS1_m, symObjAddr: 0x8254, symBinAddr: 0x10000A16C, symSize: 0x44 }
  - { offsetInCU: 0x166A3, offset: 0x166A3, size: 0x8, addend: 0x0, symName: __ZNSt3__19allocatorIPcE9constructB7v160006IS1_JS1_EEEvPT_DpOT0_, symObjAddr: 0x8298, symBinAddr: 0x10000A1B0, symSize: 0x28 }
  - { offsetInCU: 0x166F9, offset: 0x166F9, size: 0x8, addend: 0x0, symName: __ZNSt3__117__compressed_pairIPPcRNS_9allocatorIS1_EEE6secondB7v160006Ev, symObjAddr: 0x82C0, symBinAddr: 0x10000A1D8, symSize: 0x28 }
  - { offsetInCU: 0x1671F, offset: 0x1671F, size: 0x8, addend: 0x0, symName: __ZNSt3__122__compressed_pair_elemIRNS_9allocatorIPcEELi1ELb0EE5__getB7v160006Ev, symObjAddr: 0x82E8, symBinAddr: 0x10000A200, symSize: 0x18 }
  - { offsetInCU: 0x16745, offset: 0x16745, size: 0x8, addend: 0x0, symName: __ZNSt3__114__split_bufferIPcRNS_9allocatorIS1_EEE21_ConstructTransactionD2B7v160006Ev, symObjAddr: 0x8300, symBinAddr: 0x10000A218, symSize: 0x20 }
  - { offsetInCU: 0x1676F, offset: 0x1676F, size: 0x8, addend: 0x0, symName: __ZNSt3__113move_iteratorIPPcEC2B7v160006ES2_, symObjAddr: 0x8320, symBinAddr: 0x10000A238, symSize: 0x20 }
  - { offsetInCU: 0x167A7, offset: 0x167A7, size: 0x8, addend: 0x0, symName: __ZNSt3__19allocatorIPcE9constructB7v160006IS1_JRKS1_EEEvPT_DpOT0_, symObjAddr: 0x8340, symBinAddr: 0x10000A258, symSize: 0x28 }
  - { offsetInCU: 0x16807, offset: 0x16807, size: 0x8, addend: 0x0, symName: __ZNKSt3__123__move_backward_trivialclB7v160006IPcS2_Li0EEENS_4pairIPT_PT0_EES5_S5_S7_, symObjAddr: 0x84F4, symBinAddr: 0x10000A40C, symSize: 0x48 }
  - { offsetInCU: 0x1686F, offset: 0x1686F, size: 0x8, addend: 0x0, symName: __ZNSt3__114__split_bufferIPcRNS_9allocatorIS1_EEEC2EmmS4_, symObjAddr: 0x8608, symBinAddr: 0x10000A520, symSize: 0xD4 }
  - { offsetInCU: 0x168E3, offset: 0x168E3, size: 0x8, addend: 0x0, symName: __ZNSt3__117__compressed_pairIPPcRNS_9allocatorIS1_EEEC1B7v160006IDnS5_EEOT_OT0_, symObjAddr: 0x86DC, symBinAddr: 0x10000A5F4, symSize: 0x3C }
  - { offsetInCU: 0x1693B, offset: 0x1693B, size: 0x8, addend: 0x0, symName: __ZNSt3__117__compressed_pairIPPcRNS_9allocatorIS1_EEEC2B7v160006IDnS5_EEOT_OT0_, symObjAddr: 0x8758, symBinAddr: 0x10000A670, symSize: 0x48 }
  - { offsetInCU: 0x16993, offset: 0x16993, size: 0x8, addend: 0x0, symName: __ZNSt3__122__compressed_pair_elemIRNS_9allocatorIPcEELi1ELb0EEC2B7v160006IS4_vEEOT_, symObjAddr: 0x87A0, symBinAddr: 0x10000A6B8, symSize: 0x20 }
  - { offsetInCU: 0x169D5, offset: 0x169D5, size: 0x8, addend: 0x0, symName: __ZNSt3__19allocatorIPcE8allocateB7v160006Em, symObjAddr: 0x87C0, symBinAddr: 0x10000A6D8, symSize: 0x84 }
  - { offsetInCU: 0x16A13, offset: 0x16A13, size: 0x8, addend: 0x0, symName: __ZNSt3__116allocator_traitsINS_9allocatorIPcEEE8max_sizeB7v160006IS3_vEEmRKS3_, symObjAddr: 0x8844, symBinAddr: 0x10000A75C, symSize: 0x24 }
  - { offsetInCU: 0x16A41, offset: 0x16A41, size: 0x8, addend: 0x0, symName: __ZNKSt3__19allocatorIPcE8max_sizeB7v160006Ev, symObjAddr: 0x8868, symBinAddr: 0x10000A780, symSize: 0x14 }
  - { offsetInCU: 0x16A67, offset: 0x16A67, size: 0x8, addend: 0x0, symName: __ZNSt3__122__allocator_destructorINS_9allocatorIcEEEC2B7v160006ERS2_m, symObjAddr: 0x887C, symBinAddr: 0x10000A794, symSize: 0x2C }
  - { offsetInCU: 0x16AAD, offset: 0x16AAD, size: 0x8, addend: 0x0, symName: __ZNSt3__110unique_ptrIPcNS_22__allocator_destructorINS_9allocatorIcEEEEEC2B7v160006ILb1EvEES1_NS_16__dependent_typeINS_27__unique_ptr_deleter_sfinaeIS5_EEXT_EE20__good_rval_ref_typeE, symObjAddr: 0x88A8, symBinAddr: 0x10000A7C0, symSize: 0x5C }
  - { offsetInCU: 0x16AFE, offset: 0x16AFE, size: 0x8, addend: 0x0, symName: __ZNSt3__117__compressed_pairIPcNS_22__allocator_destructorINS_9allocatorIcEEEEEC1B7v160006IRS1_S5_EEOT_OT0_, symObjAddr: 0x8904, symBinAddr: 0x10000A81C, symSize: 0x3C }
  - { offsetInCU: 0x16B56, offset: 0x16B56, size: 0x8, addend: 0x0, symName: __ZNSt3__117__compressed_pairIPcNS_22__allocator_destructorINS_9allocatorIcEEEEEC2B7v160006IRS1_S5_EEOT_OT0_, symObjAddr: 0x8940, symBinAddr: 0x10000A858, symSize: 0x48 }
  - { offsetInCU: 0x16BAE, offset: 0x16BAE, size: 0x8, addend: 0x0, symName: __ZNSt3__122__compressed_pair_elemIPcLi0ELb0EEC2B7v160006IRS1_vEEOT_, symObjAddr: 0x8988, symBinAddr: 0x10000A8A0, symSize: 0x24 }
  - { offsetInCU: 0x16BF0, offset: 0x16BF0, size: 0x8, addend: 0x0, symName: __ZNSt3__122__compressed_pair_elemINS_22__allocator_destructorINS_9allocatorIcEEEELi1ELb0EEC2B7v160006IS4_vEEOT_, symObjAddr: 0x89AC, symBinAddr: 0x10000A8C4, symSize: 0x24 }
  - { offsetInCU: 0x16C32, offset: 0x16C32, size: 0x8, addend: 0x0, symName: __ZNKSt3__117__compressed_pairIPcNS_22__allocator_destructorINS_9allocatorIcEEEEE5firstB7v160006Ev, symObjAddr: 0x89D0, symBinAddr: 0x10000A8E8, symSize: 0x24 }
  - { offsetInCU: 0x16C58, offset: 0x16C58, size: 0x8, addend: 0x0, symName: __ZNKSt3__122__compressed_pair_elemIPcLi0ELb0EE5__getB7v160006Ev, symObjAddr: 0x89F4, symBinAddr: 0x10000A90C, symSize: 0x14 }
  - { offsetInCU: 0x16C7E, offset: 0x16C7E, size: 0x8, addend: 0x0, symName: __ZNSt3__117__compressed_pairIPcNS_22__allocator_destructorINS_9allocatorIcEEEEE5firstB7v160006Ev, symObjAddr: 0x8A08, symBinAddr: 0x10000A920, symSize: 0x24 }
  - { offsetInCU: 0x16CA4, offset: 0x16CA4, size: 0x8, addend: 0x0, symName: __ZNSt3__122__compressed_pair_elemIPcLi0ELb0EE5__getB7v160006Ev, symObjAddr: 0x8A2C, symBinAddr: 0x10000A944, symSize: 0x14 }
  - { offsetInCU: 0x16CCA, offset: 0x16CCA, size: 0x8, addend: 0x0, symName: __ZNSt3__117__compressed_pairIPPcNS_9allocatorIS1_EEE5firstB7v160006Ev, symObjAddr: 0x8A40, symBinAddr: 0x10000A958, symSize: 0x24 }
  - { offsetInCU: 0x16CF0, offset: 0x16CF0, size: 0x8, addend: 0x0, symName: __ZNSt3__122__compressed_pair_elemIPPcLi0ELb0EE5__getB7v160006Ev, symObjAddr: 0x8A64, symBinAddr: 0x10000A97C, symSize: 0x14 }
  - { offsetInCU: 0x16D16, offset: 0x16D16, size: 0x8, addend: 0x0, symName: __ZNSt3__117__compressed_pairIPPcRNS_9allocatorIS1_EEE5firstB7v160006Ev, symObjAddr: 0x8A78, symBinAddr: 0x10000A990, symSize: 0x24 }
  - { offsetInCU: 0x16D3C, offset: 0x16D3C, size: 0x8, addend: 0x0, symName: __ZNSt3__110unique_ptrIPcNS_22__allocator_destructorINS_9allocatorIcEEEEED2B7v160006Ev, symObjAddr: 0x8A9C, symBinAddr: 0x10000A9B4, symSize: 0x30 }
  - { offsetInCU: 0x16D66, offset: 0x16D66, size: 0x8, addend: 0x0, symName: __ZNSt3__110unique_ptrIPcNS_22__allocator_destructorINS_9allocatorIcEEEEE5resetB7v160006ES1_, symObjAddr: 0x8ACC, symBinAddr: 0x10000A9E4, symSize: 0x78 }
  - { offsetInCU: 0x16DAA, offset: 0x16DAA, size: 0x8, addend: 0x0, symName: __ZNSt3__117__compressed_pairIPcNS_22__allocator_destructorINS_9allocatorIcEEEEE6secondB7v160006Ev, symObjAddr: 0x8B44, symBinAddr: 0x10000AA5C, symSize: 0x28 }
  - { offsetInCU: 0x16DD0, offset: 0x16DD0, size: 0x8, addend: 0x0, symName: __ZNSt3__122__allocator_destructorINS_9allocatorIcEEEclB7v160006EPc, symObjAddr: 0x8B6C, symBinAddr: 0x10000AA84, symSize: 0x34 }
  - { offsetInCU: 0x16E04, offset: 0x16E04, size: 0x8, addend: 0x0, symName: __ZNSt3__122__compressed_pair_elemINS_22__allocator_destructorINS_9allocatorIcEEEELi1ELb0EE5__getB7v160006Ev, symObjAddr: 0x8BA0, symBinAddr: 0x10000AAB8, symSize: 0x14 }
  - { offsetInCU: 0x16E2A, offset: 0x16E2A, size: 0x8, addend: 0x0, symName: __ZNSt3__114__split_bufferIPcRNS_9allocatorIS1_EEED2Ev, symObjAddr: 0x8BB4, symBinAddr: 0x10000AACC, symSize: 0x80 }
  - { offsetInCU: 0x16E56, offset: 0x16E56, size: 0x8, addend: 0x0, symName: __ZNSt3__114__split_bufferIPcRNS_9allocatorIS1_EEE5clearB7v160006Ev, symObjAddr: 0x8C34, symBinAddr: 0x10000AB4C, symSize: 0x28 }
  - { offsetInCU: 0x16E7C, offset: 0x16E7C, size: 0x8, addend: 0x0, symName: __ZNKSt3__114__split_bufferIPcRNS_9allocatorIS1_EEE8capacityB7v160006Ev, symObjAddr: 0x8C5C, symBinAddr: 0x10000AB74, symSize: 0x40 }
  - { offsetInCU: 0x16EA2, offset: 0x16EA2, size: 0x8, addend: 0x0, symName: __ZNSt3__114__split_bufferIPcRNS_9allocatorIS1_EEE17__destruct_at_endB7v160006EPS1_, symObjAddr: 0x8C9C, symBinAddr: 0x10000ABB4, symSize: 0x2C }
  - { offsetInCU: 0x16ED6, offset: 0x16ED6, size: 0x8, addend: 0x0, symName: __ZNSt3__114__split_bufferIPcRNS_9allocatorIS1_EEE17__destruct_at_endB7v160006EPS1_NS_17integral_constantIbLb0EEE, symObjAddr: 0x8CC8, symBinAddr: 0x10000ABE0, symSize: 0x94 }
  - { offsetInCU: 0x16F16, offset: 0x16F16, size: 0x8, addend: 0x0, symName: __ZNKSt3__114__split_bufferIPcRNS_9allocatorIS1_EEE9__end_capB7v160006Ev, symObjAddr: 0x8D5C, symBinAddr: 0x10000AC74, symSize: 0x28 }
  - { offsetInCU: 0x16F3C, offset: 0x16F3C, size: 0x8, addend: 0x0, symName: __ZNKSt3__117__compressed_pairIPPcRNS_9allocatorIS1_EEE5firstB7v160006Ev, symObjAddr: 0x8D84, symBinAddr: 0x10000AC9C, symSize: 0x24 }
  - { offsetInCU: 0x16F62, offset: 0x16F62, size: 0x8, addend: 0x0, symName: __ZNSt3__19allocatorIcE9constructB7v160006IcJRKcEEEvPT_DpOT0_, symObjAddr: 0x8DA8, symBinAddr: 0x10000ACC0, symSize: 0x28 }
  - { offsetInCU: 0x16FB8, offset: 0x16FB8, size: 0x8, addend: 0x0, symName: __ZNKSt3__15dequeIcNS_9allocatorIcEEE5emptyB7v160006Ev, symObjAddr: 0x8DD0, symBinAddr: 0x10000ACE8, symSize: 0x30 }
  - { offsetInCU: 0x16FDE, offset: 0x16FDE, size: 0x8, addend: 0x0, symName: __ZNSt3__15dequeIcNS_9allocatorIcEEE4backEv, symObjAddr: 0x8E00, symBinAddr: 0x10000AD18, symSize: 0x68 }
  - { offsetInCU: 0x17015, offset: 0x17015, size: 0x8, addend: 0x0, symName: __ZNSt3__15dequeIcNS_9allocatorIcEEE8pop_backEv, symObjAddr: 0x8E68, symBinAddr: 0x10000AD80, symSize: 0xB8 }
  - { offsetInCU: 0x1705B, offset: 0x1705B, size: 0x8, addend: 0x0, symName: __ZNSt3__15dequeIcNS_9allocatorIcEEE25__maybe_remove_back_spareB7v160006Eb, symObjAddr: 0x8F34, symBinAddr: 0x10000AE4C, symSize: 0xCC }
  - { offsetInCU: 0x17090, offset: 0x17090, size: 0x8, addend: 0x0, symName: __ZNKSt3__15dequeIcNS_9allocatorIcEEE19__back_spare_blocksB7v160006Ev, symObjAddr: 0x9000, symBinAddr: 0x10000AF18, symSize: 0x2C }
  - { offsetInCU: 0x170B6, offset: 0x170B6, size: 0x8, addend: 0x0, symName: __ZNSt3__114__split_bufferIPcNS_9allocatorIS1_EEE4backB7v160006Ev, symObjAddr: 0x902C, symBinAddr: 0x10000AF44, symSize: 0x1C }
  - { offsetInCU: 0x170DC, offset: 0x170DC, size: 0x8, addend: 0x0, symName: __ZNSt3__114__split_bufferIPcNS_9allocatorIS1_EEE8pop_backB7v160006Ev, symObjAddr: 0x9048, symBinAddr: 0x10000AF60, symSize: 0x2C }
  - { offsetInCU: 0x17102, offset: 0x17102, size: 0x8, addend: 0x0, symName: __ZNSt3__15stackI3NFANS_5dequeIS1_NS_9allocatorIS1_EEEEEC2B7v160006Ev, symObjAddr: 0x9074, symBinAddr: 0x10000AF8C, symSize: 0x2C }
  - { offsetInCU: 0x1712C, offset: 0x1712C, size: 0x8, addend: 0x0, symName: __ZNSt3__15dequeI3NFANS_9allocatorIS1_EEEC1B7v160006Ev, symObjAddr: 0x90A0, symBinAddr: 0x10000AFB8, symSize: 0x2C }
  - { offsetInCU: 0x17156, offset: 0x17156, size: 0x8, addend: 0x0, symName: __ZNSt3__15dequeI3NFANS_9allocatorIS1_EEEC2B7v160006Ev, symObjAddr: 0x90CC, symBinAddr: 0x10000AFE4, symSize: 0x78 }
  - { offsetInCU: 0x17180, offset: 0x17180, size: 0x8, addend: 0x0, symName: __ZNSt3__114__split_bufferIP3NFANS_9allocatorIS2_EEEC1Ev, symObjAddr: 0x9144, symBinAddr: 0x10000B05C, symSize: 0x2C }
  - { offsetInCU: 0x171AC, offset: 0x171AC, size: 0x8, addend: 0x0, symName: __ZNSt3__117__compressed_pairImNS_9allocatorI3NFAEEEC1B7v160006IiNS_18__default_init_tagEEEOT_OT0_, symObjAddr: 0x9170, symBinAddr: 0x10000B088, symSize: 0x3C }
  - { offsetInCU: 0x17204, offset: 0x17204, size: 0x8, addend: 0x0, symName: __ZNSt3__114__split_bufferIP3NFANS_9allocatorIS2_EEEC2Ev, symObjAddr: 0x91AC, symBinAddr: 0x10000B0C4, symSize: 0x48 }
  - { offsetInCU: 0x17230, offset: 0x17230, size: 0x8, addend: 0x0, symName: __ZNSt3__117__compressed_pairIPP3NFANS_9allocatorIS2_EEEC1B7v160006IDnNS_18__default_init_tagEEEOT_OT0_, symObjAddr: 0x91F4, symBinAddr: 0x10000B10C, symSize: 0x3C }
  - { offsetInCU: 0x17288, offset: 0x17288, size: 0x8, addend: 0x0, symName: __ZNSt3__117__compressed_pairIPP3NFANS_9allocatorIS2_EEEC2B7v160006IDnNS_18__default_init_tagEEEOT_OT0_, symObjAddr: 0x9230, symBinAddr: 0x10000B148, symSize: 0x40 }
  - { offsetInCU: 0x172E0, offset: 0x172E0, size: 0x8, addend: 0x0, symName: __ZNSt3__122__compressed_pair_elemIPP3NFALi0ELb0EEC2B7v160006IDnvEEOT_, symObjAddr: 0x9270, symBinAddr: 0x10000B188, symSize: 0x1C }
  - { offsetInCU: 0x17322, offset: 0x17322, size: 0x8, addend: 0x0, symName: __ZNSt3__122__compressed_pair_elemINS_9allocatorIP3NFAEELi1ELb1EEC2B7v160006ENS_18__default_init_tagE, symObjAddr: 0x928C, symBinAddr: 0x10000B1A4, symSize: 0x2C }
  - { offsetInCU: 0x17356, offset: 0x17356, size: 0x8, addend: 0x0, symName: __ZNSt3__19allocatorIP3NFAEC2B7v160006Ev, symObjAddr: 0x92B8, symBinAddr: 0x10000B1D0, symSize: 0x2C }
  - { offsetInCU: 0x17380, offset: 0x17380, size: 0x8, addend: 0x0, symName: __ZNSt3__116__non_trivial_ifILb1ENS_9allocatorIP3NFAEEEC2B7v160006Ev, symObjAddr: 0x92E4, symBinAddr: 0x10000B1FC, symSize: 0x14 }
  - { offsetInCU: 0x173AA, offset: 0x173AA, size: 0x8, addend: 0x0, symName: __ZNSt3__117__compressed_pairImNS_9allocatorI3NFAEEEC2B7v160006IiNS_18__default_init_tagEEEOT_OT0_, symObjAddr: 0x92F8, symBinAddr: 0x10000B210, symSize: 0x40 }
  - { offsetInCU: 0x17402, offset: 0x17402, size: 0x8, addend: 0x0, symName: __ZNSt3__122__compressed_pair_elemINS_9allocatorI3NFAEELi1ELb1EEC2B7v160006ENS_18__default_init_tagE, symObjAddr: 0x9338, symBinAddr: 0x10000B250, symSize: 0x2C }
  - { offsetInCU: 0x17436, offset: 0x17436, size: 0x8, addend: 0x0, symName: __ZNSt3__19allocatorI3NFAEC2B7v160006Ev, symObjAddr: 0x9364, symBinAddr: 0x10000B27C, symSize: 0x2C }
  - { offsetInCU: 0x17460, offset: 0x17460, size: 0x8, addend: 0x0, symName: __ZNSt3__116__non_trivial_ifILb1ENS_9allocatorI3NFAEEEC2B7v160006Ev, symObjAddr: 0x9390, symBinAddr: 0x10000B2A8, symSize: 0x14 }
  - { offsetInCU: 0x1748A, offset: 0x1748A, size: 0x8, addend: 0x0, symName: __ZNKSt3__112basic_stringIcNS_11char_traitsIcEENS_9allocatorIcEEE4dataB7v160006Ev, symObjAddr: 0x93A4, symBinAddr: 0x10000B2BC, symSize: 0x28 }
  - { offsetInCU: 0x174B0, offset: 0x174B0, size: 0x8, addend: 0x0, symName: __ZNKSt3__112basic_stringIcNS_11char_traitsIcEENS_9allocatorIcEEE13__get_pointerB7v160006Ev, symObjAddr: 0x93E0, symBinAddr: 0x10000B2F8, symSize: 0x54 }
  - { offsetInCU: 0x174D6, offset: 0x174D6, size: 0x8, addend: 0x0, symName: __ZNKSt3__112basic_stringIcNS_11char_traitsIcEENS_9allocatorIcEEE18__get_long_pointerB7v160006Ev, symObjAddr: 0x9434, symBinAddr: 0x10000B34C, symSize: 0x28 }
  - { offsetInCU: 0x174FC, offset: 0x174FC, size: 0x8, addend: 0x0, symName: __ZNKSt3__112basic_stringIcNS_11char_traitsIcEENS_9allocatorIcEEE19__get_short_pointerB7v160006Ev, symObjAddr: 0x945C, symBinAddr: 0x10000B374, symSize: 0x28 }
  - { offsetInCU: 0x17522, offset: 0x17522, size: 0x8, addend: 0x0, symName: __ZNSt3__114pointer_traitsIPKcE10pointer_toB7v160006ERS1_, symObjAddr: 0x9484, symBinAddr: 0x10000B39C, symSize: 0x14 }
  - { offsetInCU: 0x17545, offset: 0x17545, size: 0x8, addend: 0x0, symName: __ZNSt3__15dequeI3NFANS_9allocatorIS1_EEE9push_backERKS1_, symObjAddr: 0x9498, symBinAddr: 0x10000B3B0, symSize: 0xA0 }
  - { offsetInCU: 0x1758B, offset: 0x1758B, size: 0x8, addend: 0x0, symName: __ZNKSt3__15dequeI3NFANS_9allocatorIS1_EEE12__back_spareB7v160006Ev, symObjAddr: 0x9538, symBinAddr: 0x10000B450, symSize: 0x54 }
  - { offsetInCU: 0x175B1, offset: 0x175B1, size: 0x8, addend: 0x0, symName: __ZNSt3__15dequeI3NFANS_9allocatorIS1_EEE19__add_back_capacityEv, symObjAddr: 0x958C, symBinAddr: 0x10000B4A4, symSize: 0x32C }
  - { offsetInCU: 0x17669, offset: 0x17669, size: 0x8, addend: 0x0, symName: __ZNSt3__116allocator_traitsINS_9allocatorI3NFAEEE9constructB7v160006IS2_JRKS2_EvEEvRS3_PT_DpOT0_, symObjAddr: 0x98B8, symBinAddr: 0x10000B7D0, symSize: 0x34 }
  - { offsetInCU: 0x176C0, offset: 0x176C0, size: 0x8, addend: 0x0, symName: __ZNKSt3__15dequeI3NFANS_9allocatorIS1_EEE10__capacityB7v160006Ev, symObjAddr: 0x98EC, symBinAddr: 0x10000B804, symSize: 0x64 }
  - { offsetInCU: 0x176E6, offset: 0x176E6, size: 0x8, addend: 0x0, symName: __ZNKSt3__15dequeI3NFANS_9allocatorIS1_EEE13__front_spareB7v160006Ev, symObjAddr: 0x9950, symBinAddr: 0x10000B868, symSize: 0x18 }
  - { offsetInCU: 0x1770C, offset: 0x1770C, size: 0x8, addend: 0x0, symName: __ZNSt3__114__split_bufferIP3NFANS_9allocatorIS2_EEE9push_backB7v160006ERKS2_, symObjAddr: 0x9968, symBinAddr: 0x10000B880, symSize: 0x270 }
  - { offsetInCU: 0x17785, offset: 0x17785, size: 0x8, addend: 0x0, symName: __ZNKSt3__114__split_bufferIP3NFANS_9allocatorIS2_EEE12__back_spareB7v160006Ev, symObjAddr: 0x9BD8, symBinAddr: 0x10000BAF0, symSize: 0x40 }
  - { offsetInCU: 0x177AB, offset: 0x177AB, size: 0x8, addend: 0x0, symName: __ZNSt3__114__split_bufferIP3NFANS_9allocatorIS2_EEE9push_backEOS2_, symObjAddr: 0x9C18, symBinAddr: 0x10000BB30, symSize: 0x270 }
  - { offsetInCU: 0x17824, offset: 0x17824, size: 0x8, addend: 0x0, symName: __ZNSt3__116allocator_traitsINS_9allocatorI3NFAEEE8allocateB7v160006ERS3_m, symObjAddr: 0x9E88, symBinAddr: 0x10000BDA0, symSize: 0x2C }
  - { offsetInCU: 0x17857, offset: 0x17857, size: 0x8, addend: 0x0, symName: __ZNSt3__114__split_bufferIP3NFANS_9allocatorIS2_EEE10push_frontEOS2_, symObjAddr: 0x9EB4, symBinAddr: 0x10000BDCC, symSize: 0x26C }
  - { offsetInCU: 0x178D0, offset: 0x178D0, size: 0x8, addend: 0x0, symName: __ZNSt3__114__split_bufferIP3NFARNS_9allocatorIS2_EEEC1EmmS5_, symObjAddr: 0xA120, symBinAddr: 0x10000C038, symSize: 0x44 }
  - { offsetInCU: 0x1792B, offset: 0x1792B, size: 0x8, addend: 0x0, symName: __ZNSt3__122__allocator_destructorINS_9allocatorI3NFAEEEC1B7v160006ERS3_m, symObjAddr: 0xA164, symBinAddr: 0x10000C07C, symSize: 0x3C }
  - { offsetInCU: 0x179F5, offset: 0x179F5, size: 0x8, addend: 0x0, symName: __ZNSt3__110unique_ptrIP3NFANS_22__allocator_destructorINS_9allocatorIS1_EEEEEC1B7v160006ILb1EvEES2_NS_16__dependent_typeINS_27__unique_ptr_deleter_sfinaeIS6_EEXT_EE20__good_rval_ref_typeE, symObjAddr: 0xA1A0, symBinAddr: 0x10000C0B8, symSize: 0x3C }
  - { offsetInCU: 0x17A46, offset: 0x17A46, size: 0x8, addend: 0x0, symName: __ZNSt3__114__split_bufferIP3NFARNS_9allocatorIS2_EEE9push_backEOS2_, symObjAddr: 0xA1DC, symBinAddr: 0x10000C0F4, symSize: 0x270 }
  - { offsetInCU: 0x17ABF, offset: 0x17ABF, size: 0x8, addend: 0x0, symName: __ZNKSt3__110unique_ptrIP3NFANS_22__allocator_destructorINS_9allocatorIS1_EEEEE3getB7v160006Ev, symObjAddr: 0xA44C, symBinAddr: 0x10000C364, symSize: 0x28 }
  - { offsetInCU: 0x17AE5, offset: 0x17AE5, size: 0x8, addend: 0x0, symName: __ZNSt3__110unique_ptrIP3NFANS_22__allocator_destructorINS_9allocatorIS1_EEEEE7releaseB7v160006Ev, symObjAddr: 0xA474, symBinAddr: 0x10000C38C, symSize: 0x44 }
  - { offsetInCU: 0x17B1A, offset: 0x17B1A, size: 0x8, addend: 0x0, symName: __ZNSt3__114__split_bufferIP3NFARNS_9allocatorIS2_EEE10push_frontERKS2_, symObjAddr: 0xA4B8, symBinAddr: 0x10000C3D0, symSize: 0x26C }
  - { offsetInCU: 0x17B93, offset: 0x17B93, size: 0x8, addend: 0x0, symName: __ZNSt3__114__split_bufferIP3NFANS_9allocatorIS2_EEE9__end_capB7v160006Ev, symObjAddr: 0xA760, symBinAddr: 0x10000C678, symSize: 0x28 }
  - { offsetInCU: 0x17BB9, offset: 0x17BB9, size: 0x8, addend: 0x0, symName: __ZNSt3__114__split_bufferIP3NFARNS_9allocatorIS2_EEE9__end_capB7v160006Ev, symObjAddr: 0xA788, symBinAddr: 0x10000C6A0, symSize: 0x28 }
  - { offsetInCU: 0x17BDF, offset: 0x17BDF, size: 0x8, addend: 0x0, symName: __ZNSt3__110unique_ptrIP3NFANS_22__allocator_destructorINS_9allocatorIS1_EEEEED1B7v160006Ev, symObjAddr: 0xA7B0, symBinAddr: 0x10000C6C8, symSize: 0x2C }
  - { offsetInCU: 0x17C09, offset: 0x17C09, size: 0x8, addend: 0x0, symName: __ZNSt3__114__split_bufferIP3NFARNS_9allocatorIS2_EEED1Ev, symObjAddr: 0xA7DC, symBinAddr: 0x10000C6F4, symSize: 0x2C }
  - { offsetInCU: 0x17C35, offset: 0x17C35, size: 0x8, addend: 0x0, symName: __ZNSt3__114__split_bufferIP3NFARNS_9allocatorIS2_EEE18__construct_at_endINS_13move_iteratorIPS2_EEEENS_9enable_ifIXsr27__is_cpp17_forward_iteratorIT_EE5valueEvE4typeESC_SC_, symObjAddr: 0xA848, symBinAddr: 0x10000C760, symSize: 0x104 }
  - { offsetInCU: 0x17C91, offset: 0x17C91, size: 0x8, addend: 0x0, symName: __ZNSt3__113move_iteratorIPP3NFAEC1B7v160006ES3_, symObjAddr: 0xA94C, symBinAddr: 0x10000C864, symSize: 0x34 }
  - { offsetInCU: 0x17CC9, offset: 0x17CC9, size: 0x8, addend: 0x0, symName: __ZNSt3__116allocator_traitsINS_9allocatorIP3NFAEEE9constructB7v160006IS3_JRKS3_EvEEvRS4_PT_DpOT0_, symObjAddr: 0xA980, symBinAddr: 0x10000C898, symSize: 0x34 }
  - { offsetInCU: 0x17D3A, offset: 0x17D3A, size: 0x8, addend: 0x0, symName: __ZNKSt3__114__move_trivialclB7v160006IP3NFAS3_Li0EEENS_4pairIPT_PT0_EES6_S6_S8_, symObjAddr: 0xAB60, symBinAddr: 0x10000CA78, symSize: 0x48 }
  - { offsetInCU: 0x17DA2, offset: 0x17DA2, size: 0x8, addend: 0x0, symName: __ZNSt3__14pairIPP3NFAS3_EC1B7v160006ERKS3_S6_, symObjAddr: 0xAD3C, symBinAddr: 0x10000CC54, symSize: 0x3C }
  - { offsetInCU: 0x17DE8, offset: 0x17DE8, size: 0x8, addend: 0x0, symName: __ZNSt3__14pairIPP3NFAS3_EC2B7v160006ERKS3_S6_, symObjAddr: 0xAD78, symBinAddr: 0x10000CC90, symSize: 0x34 }
  - { offsetInCU: 0x17E2E, offset: 0x17E2E, size: 0x8, addend: 0x0, symName: __ZNSt3__118__unwrap_iter_implIPP3NFALb1EE8__unwrapB7v160006ES3_, symObjAddr: 0xADAC, symBinAddr: 0x10000CCC4, symSize: 0x24 }
  - { offsetInCU: 0x17E51, offset: 0x17E51, size: 0x8, addend: 0x0, symName: __ZNSt3__118__unwrap_iter_implIPP3NFALb1EE8__rewrapB7v160006ES3_S3_, symObjAddr: 0xADD0, symBinAddr: 0x10000CCE8, symSize: 0x50 }
  - { offsetInCU: 0x17E8C, offset: 0x17E8C, size: 0x8, addend: 0x0, symName: __ZNSt3__114__split_bufferIP3NFARNS_9allocatorIS2_EEE21_ConstructTransactionC1B7v160006EPPS2_m, symObjAddr: 0xAE5C, symBinAddr: 0x10000CD74, symSize: 0x3C }
  - { offsetInCU: 0x17ED2, offset: 0x17ED2, size: 0x8, addend: 0x0, symName: __ZNSt3__116allocator_traitsINS_9allocatorIP3NFAEEE9constructB7v160006IS3_JS3_EvEEvRS4_PT_DpOT0_, symObjAddr: 0xAE98, symBinAddr: 0x10000CDB0, symSize: 0x34 }
  - { offsetInCU: 0x17F29, offset: 0x17F29, size: 0x8, addend: 0x0, symName: __ZNSt3__114__split_bufferIP3NFARNS_9allocatorIS2_EEE7__allocB7v160006Ev, symObjAddr: 0xAECC, symBinAddr: 0x10000CDE4, symSize: 0x28 }
  - { offsetInCU: 0x17F4F, offset: 0x17F4F, size: 0x8, addend: 0x0, symName: __ZNKSt3__113move_iteratorIPP3NFAEdeB7v160006Ev, symObjAddr: 0xAEF4, symBinAddr: 0x10000CE0C, symSize: 0x18 }
  - { offsetInCU: 0x17F75, offset: 0x17F75, size: 0x8, addend: 0x0, symName: __ZNSt3__113move_iteratorIPP3NFAEppB7v160006Ev, symObjAddr: 0xAF0C, symBinAddr: 0x10000CE24, symSize: 0x20 }
  - { offsetInCU: 0x17F9B, offset: 0x17F9B, size: 0x8, addend: 0x0, symName: __ZNSt3__114__split_bufferIP3NFARNS_9allocatorIS2_EEE21_ConstructTransactionD1B7v160006Ev, symObjAddr: 0xAF2C, symBinAddr: 0x10000CE44, symSize: 0x2C }
  - { offsetInCU: 0x17FC5, offset: 0x17FC5, size: 0x8, addend: 0x0, symName: __ZNKSt3__113move_iteratorIPP3NFAE4baseB7v160006Ev, symObjAddr: 0xAFD0, symBinAddr: 0x10000CEE8, symSize: 0x18 }
  - { offsetInCU: 0x17FEB, offset: 0x17FEB, size: 0x8, addend: 0x0, symName: __ZNSt3__114__split_bufferIP3NFARNS_9allocatorIS2_EEE21_ConstructTransactionC2B7v160006EPPS2_m, symObjAddr: 0xAFE8, symBinAddr: 0x10000CF00, symSize: 0x44 }
  - { offsetInCU: 0x18031, offset: 0x18031, size: 0x8, addend: 0x0, symName: __ZNSt3__19allocatorIP3NFAE9constructB7v160006IS2_JS2_EEEvPT_DpOT0_, symObjAddr: 0xB02C, symBinAddr: 0x10000CF44, symSize: 0x28 }
  - { offsetInCU: 0x18087, offset: 0x18087, size: 0x8, addend: 0x0, symName: __ZNSt3__117__compressed_pairIPP3NFARNS_9allocatorIS2_EEE6secondB7v160006Ev, symObjAddr: 0xB054, symBinAddr: 0x10000CF6C, symSize: 0x28 }
  - { offsetInCU: 0x180AD, offset: 0x180AD, size: 0x8, addend: 0x0, symName: __ZNSt3__122__compressed_pair_elemIRNS_9allocatorIP3NFAEELi1ELb0EE5__getB7v160006Ev, symObjAddr: 0xB07C, symBinAddr: 0x10000CF94, symSize: 0x18 }
  - { offsetInCU: 0x180D3, offset: 0x180D3, size: 0x8, addend: 0x0, symName: __ZNSt3__114__split_bufferIP3NFARNS_9allocatorIS2_EEE21_ConstructTransactionD2B7v160006Ev, symObjAddr: 0xB094, symBinAddr: 0x10000CFAC, symSize: 0x20 }
  - { offsetInCU: 0x180FD, offset: 0x180FD, size: 0x8, addend: 0x0, symName: __ZNSt3__113move_iteratorIPP3NFAEC2B7v160006ES3_, symObjAddr: 0xB0B4, symBinAddr: 0x10000CFCC, symSize: 0x20 }
  - { offsetInCU: 0x18135, offset: 0x18135, size: 0x8, addend: 0x0, symName: __ZNSt3__19allocatorIP3NFAE9constructB7v160006IS2_JRKS2_EEEvPT_DpOT0_, symObjAddr: 0xB0D4, symBinAddr: 0x10000CFEC, symSize: 0x28 }
  - { offsetInCU: 0x1818B, offset: 0x1818B, size: 0x8, addend: 0x0, symName: __ZNSt3__19allocatorI3NFAE8allocateB7v160006Em, symObjAddr: 0xB0FC, symBinAddr: 0x10000D014, symSize: 0x8C }
  - { offsetInCU: 0x181C9, offset: 0x181C9, size: 0x8, addend: 0x0, symName: __ZNSt3__116allocator_traitsINS_9allocatorI3NFAEEE8max_sizeB7v160006IS3_vEEmRKS3_, symObjAddr: 0xB188, symBinAddr: 0x10000D0A0, symSize: 0x24 }
  - { offsetInCU: 0x181F7, offset: 0x181F7, size: 0x8, addend: 0x0, symName: __ZNKSt3__19allocatorI3NFAE8max_sizeB7v160006Ev, symObjAddr: 0xB1AC, symBinAddr: 0x10000D0C4, symSize: 0x18 }
  - { offsetInCU: 0x1821D, offset: 0x1821D, size: 0x8, addend: 0x0, symName: __ZNKSt3__123__move_backward_trivialclB7v160006IP3NFAS3_Li0EEENS_4pairIPT_PT0_EES6_S6_S8_, symObjAddr: 0xB350, symBinAddr: 0x10000D268, symSize: 0x48 }
  - { offsetInCU: 0x18285, offset: 0x18285, size: 0x8, addend: 0x0, symName: __ZNSt3__114__split_bufferIP3NFARNS_9allocatorIS2_EEEC2EmmS5_, symObjAddr: 0xB464, symBinAddr: 0x10000D37C, symSize: 0xD4 }
  - { offsetInCU: 0x182F9, offset: 0x182F9, size: 0x8, addend: 0x0, symName: __ZNSt3__117__compressed_pairIPP3NFARNS_9allocatorIS2_EEEC1B7v160006IDnS6_EEOT_OT0_, symObjAddr: 0xB538, symBinAddr: 0x10000D450, symSize: 0x3C }
  - { offsetInCU: 0x18351, offset: 0x18351, size: 0x8, addend: 0x0, symName: __ZNSt3__117__compressed_pairIPP3NFARNS_9allocatorIS2_EEEC2B7v160006IDnS6_EEOT_OT0_, symObjAddr: 0xB5B4, symBinAddr: 0x10000D4CC, symSize: 0x48 }
  - { offsetInCU: 0x183A9, offset: 0x183A9, size: 0x8, addend: 0x0, symName: __ZNSt3__122__compressed_pair_elemIRNS_9allocatorIP3NFAEELi1ELb0EEC2B7v160006IS5_vEEOT_, symObjAddr: 0xB5FC, symBinAddr: 0x10000D514, symSize: 0x20 }
  - { offsetInCU: 0x183EB, offset: 0x183EB, size: 0x8, addend: 0x0, symName: __ZNSt3__19allocatorIP3NFAE8allocateB7v160006Em, symObjAddr: 0xB61C, symBinAddr: 0x10000D534, symSize: 0x84 }
  - { offsetInCU: 0x18429, offset: 0x18429, size: 0x8, addend: 0x0, symName: __ZNSt3__116allocator_traitsINS_9allocatorIP3NFAEEE8max_sizeB7v160006IS4_vEEmRKS4_, symObjAddr: 0xB6A0, symBinAddr: 0x10000D5B8, symSize: 0x24 }
  - { offsetInCU: 0x18457, offset: 0x18457, size: 0x8, addend: 0x0, symName: __ZNKSt3__19allocatorIP3NFAE8max_sizeB7v160006Ev, symObjAddr: 0xB6C4, symBinAddr: 0x10000D5DC, symSize: 0x14 }
  - { offsetInCU: 0x1847D, offset: 0x1847D, size: 0x8, addend: 0x0, symName: __ZNSt3__122__allocator_destructorINS_9allocatorI3NFAEEEC2B7v160006ERS3_m, symObjAddr: 0xB6D8, symBinAddr: 0x10000D5F0, symSize: 0x2C }
  - { offsetInCU: 0x184C3, offset: 0x184C3, size: 0x8, addend: 0x0, symName: __ZNSt3__110unique_ptrIP3NFANS_22__allocator_destructorINS_9allocatorIS1_EEEEEC2B7v160006ILb1EvEES2_NS_16__dependent_typeINS_27__unique_ptr_deleter_sfinaeIS6_EEXT_EE20__good_rval_ref_typeE, symObjAddr: 0xB704, symBinAddr: 0x10000D61C, symSize: 0x5C }
  - { offsetInCU: 0x18514, offset: 0x18514, size: 0x8, addend: 0x0, symName: __ZNSt3__117__compressed_pairIP3NFANS_22__allocator_destructorINS_9allocatorIS1_EEEEEC1B7v160006IRS2_S6_EEOT_OT0_, symObjAddr: 0xB760, symBinAddr: 0x10000D678, symSize: 0x3C }
  - { offsetInCU: 0x1856C, offset: 0x1856C, size: 0x8, addend: 0x0, symName: __ZNSt3__117__compressed_pairIP3NFANS_22__allocator_destructorINS_9allocatorIS1_EEEEEC2B7v160006IRS2_S6_EEOT_OT0_, symObjAddr: 0xB79C, symBinAddr: 0x10000D6B4, symSize: 0x48 }
  - { offsetInCU: 0x185C4, offset: 0x185C4, size: 0x8, addend: 0x0, symName: __ZNSt3__122__compressed_pair_elemIP3NFALi0ELb0EEC2B7v160006IRS2_vEEOT_, symObjAddr: 0xB7E4, symBinAddr: 0x10000D6FC, symSize: 0x24 }
  - { offsetInCU: 0x18606, offset: 0x18606, size: 0x8, addend: 0x0, symName: __ZNSt3__122__compressed_pair_elemINS_22__allocator_destructorINS_9allocatorI3NFAEEEELi1ELb0EEC2B7v160006IS5_vEEOT_, symObjAddr: 0xB808, symBinAddr: 0x10000D720, symSize: 0x24 }
  - { offsetInCU: 0x18648, offset: 0x18648, size: 0x8, addend: 0x0, symName: __ZNKSt3__117__compressed_pairIP3NFANS_22__allocator_destructorINS_9allocatorIS1_EEEEE5firstB7v160006Ev, symObjAddr: 0xB82C, symBinAddr: 0x10000D744, symSize: 0x24 }
  - { offsetInCU: 0x1866E, offset: 0x1866E, size: 0x8, addend: 0x0, symName: __ZNKSt3__122__compressed_pair_elemIP3NFALi0ELb0EE5__getB7v160006Ev, symObjAddr: 0xB850, symBinAddr: 0x10000D768, symSize: 0x14 }
  - { offsetInCU: 0x18694, offset: 0x18694, size: 0x8, addend: 0x0, symName: __ZNSt3__117__compressed_pairIP3NFANS_22__allocator_destructorINS_9allocatorIS1_EEEEE5firstB7v160006Ev, symObjAddr: 0xB864, symBinAddr: 0x10000D77C, symSize: 0x24 }
  - { offsetInCU: 0x186BA, offset: 0x186BA, size: 0x8, addend: 0x0, symName: __ZNSt3__122__compressed_pair_elemIP3NFALi0ELb0EE5__getB7v160006Ev, symObjAddr: 0xB888, symBinAddr: 0x10000D7A0, symSize: 0x14 }
  - { offsetInCU: 0x186E0, offset: 0x186E0, size: 0x8, addend: 0x0, symName: __ZNSt3__117__compressed_pairIPP3NFANS_9allocatorIS2_EEE5firstB7v160006Ev, symObjAddr: 0xB89C, symBinAddr: 0x10000D7B4, symSize: 0x24 }
  - { offsetInCU: 0x18706, offset: 0x18706, size: 0x8, addend: 0x0, symName: __ZNSt3__122__compressed_pair_elemIPP3NFALi0ELb0EE5__getB7v160006Ev, symObjAddr: 0xB8C0, symBinAddr: 0x10000D7D8, symSize: 0x14 }
  - { offsetInCU: 0x1872C, offset: 0x1872C, size: 0x8, addend: 0x0, symName: __ZNSt3__117__compressed_pairIPP3NFARNS_9allocatorIS2_EEE5firstB7v160006Ev, symObjAddr: 0xB8D4, symBinAddr: 0x10000D7EC, symSize: 0x24 }
  - { offsetInCU: 0x18752, offset: 0x18752, size: 0x8, addend: 0x0, symName: __ZNSt3__110unique_ptrIP3NFANS_22__allocator_destructorINS_9allocatorIS1_EEEEED2B7v160006Ev, symObjAddr: 0xB8F8, symBinAddr: 0x10000D810, symSize: 0x30 }
  - { offsetInCU: 0x1877C, offset: 0x1877C, size: 0x8, addend: 0x0, symName: __ZNSt3__110unique_ptrIP3NFANS_22__allocator_destructorINS_9allocatorIS1_EEEEE5resetB7v160006ES2_, symObjAddr: 0xB928, symBinAddr: 0x10000D840, symSize: 0x78 }
  - { offsetInCU: 0x187C0, offset: 0x187C0, size: 0x8, addend: 0x0, symName: __ZNSt3__117__compressed_pairIP3NFANS_22__allocator_destructorINS_9allocatorIS1_EEEEE6secondB7v160006Ev, symObjAddr: 0xB9A0, symBinAddr: 0x10000D8B8, symSize: 0x28 }
  - { offsetInCU: 0x187E6, offset: 0x187E6, size: 0x8, addend: 0x0, symName: __ZNSt3__122__allocator_destructorINS_9allocatorI3NFAEEEclB7v160006EPS2_, symObjAddr: 0xB9C8, symBinAddr: 0x10000D8E0, symSize: 0x34 }
  - { offsetInCU: 0x1881A, offset: 0x1881A, size: 0x8, addend: 0x0, symName: __ZNSt3__122__compressed_pair_elemINS_22__allocator_destructorINS_9allocatorI3NFAEEEELi1ELb0EE5__getB7v160006Ev, symObjAddr: 0xB9FC, symBinAddr: 0x10000D914, symSize: 0x14 }
  - { offsetInCU: 0x18840, offset: 0x18840, size: 0x8, addend: 0x0, symName: __ZNSt3__114__split_bufferIP3NFARNS_9allocatorIS2_EEED2Ev, symObjAddr: 0xBA10, symBinAddr: 0x10000D928, symSize: 0x80 }
  - { offsetInCU: 0x1886C, offset: 0x1886C, size: 0x8, addend: 0x0, symName: __ZNSt3__114__split_bufferIP3NFARNS_9allocatorIS2_EEE5clearB7v160006Ev, symObjAddr: 0xBA90, symBinAddr: 0x10000D9A8, symSize: 0x28 }
  - { offsetInCU: 0x18892, offset: 0x18892, size: 0x8, addend: 0x0, symName: __ZNKSt3__114__split_bufferIP3NFARNS_9allocatorIS2_EEE8capacityB7v160006Ev, symObjAddr: 0xBAB8, symBinAddr: 0x10000D9D0, symSize: 0x40 }
  - { offsetInCU: 0x188B8, offset: 0x188B8, size: 0x8, addend: 0x0, symName: __ZNSt3__114__split_bufferIP3NFARNS_9allocatorIS2_EEE17__destruct_at_endB7v160006EPS2_, symObjAddr: 0xBAF8, symBinAddr: 0x10000DA10, symSize: 0x2C }
  - { offsetInCU: 0x188EC, offset: 0x188EC, size: 0x8, addend: 0x0, symName: __ZNSt3__114__split_bufferIP3NFARNS_9allocatorIS2_EEE17__destruct_at_endB7v160006EPS2_NS_17integral_constantIbLb0EEE, symObjAddr: 0xBB24, symBinAddr: 0x10000DA3C, symSize: 0x94 }
  - { offsetInCU: 0x1892C, offset: 0x1892C, size: 0x8, addend: 0x0, symName: __ZNKSt3__114__split_bufferIP3NFARNS_9allocatorIS2_EEE9__end_capB7v160006Ev, symObjAddr: 0xBBB8, symBinAddr: 0x10000DAD0, symSize: 0x28 }
  - { offsetInCU: 0x18952, offset: 0x18952, size: 0x8, addend: 0x0, symName: __ZNKSt3__117__compressed_pairIPP3NFARNS_9allocatorIS2_EEE5firstB7v160006Ev, symObjAddr: 0xBBE0, symBinAddr: 0x10000DAF8, symSize: 0x24 }
  - { offsetInCU: 0x18978, offset: 0x18978, size: 0x8, addend: 0x0, symName: __ZNSt3__19allocatorI3NFAE9constructB7v160006IS1_JRKS1_EEEvPT_DpOT0_, symObjAddr: 0xBC04, symBinAddr: 0x10000DB1C, symSize: 0x30 }
  - { offsetInCU: 0x189CE, offset: 0x189CE, size: 0x8, addend: 0x0, symName: __ZNSt3__15dequeI3NFANS_9allocatorIS1_EEE4backEv, symObjAddr: 0xBC34, symBinAddr: 0x10000DB4C, symSize: 0x70 }
  - { offsetInCU: 0x18A05, offset: 0x18A05, size: 0x8, addend: 0x0, symName: __ZNSt3__15dequeI3NFANS_9allocatorIS1_EEE8pop_backEv, symObjAddr: 0xBCA4, symBinAddr: 0x10000DBBC, symSize: 0xC0 }
  - { offsetInCU: 0x18A4B, offset: 0x18A4B, size: 0x8, addend: 0x0, symName: __ZNSt3__15dequeI3NFANS_9allocatorIS1_EEE25__maybe_remove_back_spareB7v160006Eb, symObjAddr: 0xBD78, symBinAddr: 0x10000DC90, symSize: 0xCC }
  - { offsetInCU: 0x18A80, offset: 0x18A80, size: 0x8, addend: 0x0, symName: __ZNKSt3__15dequeI3NFANS_9allocatorIS1_EEE19__back_spare_blocksB7v160006Ev, symObjAddr: 0xBE44, symBinAddr: 0x10000DD5C, symSize: 0x2C }
  - { offsetInCU: 0x18AA6, offset: 0x18AA6, size: 0x8, addend: 0x0, symName: __ZNSt3__114__split_bufferIP3NFANS_9allocatorIS2_EEE4backB7v160006Ev, symObjAddr: 0xBE70, symBinAddr: 0x10000DD88, symSize: 0x1C }
  - { offsetInCU: 0x18ACC, offset: 0x18ACC, size: 0x8, addend: 0x0, symName: __ZNSt3__114__split_bufferIP3NFANS_9allocatorIS2_EEE8pop_backB7v160006Ev, symObjAddr: 0xBE8C, symBinAddr: 0x10000DDA4, symSize: 0x2C }
  - { offsetInCU: 0x18AF2, offset: 0x18AF2, size: 0x8, addend: 0x0, symName: __ZNSt3__111char_traitsIcE6lengthEPKc, symObjAddr: 0xC0AC, symBinAddr: 0x10000DFC4, symSize: 0x48 }
  - { offsetInCU: 0x18B33, offset: 0x18B33, size: 0x8, addend: 0x0, symName: __ZNKSt3__113basic_ostreamIcNS_11char_traitsIcEEE6sentrycvbB7v160006Ev, symObjAddr: 0xC0F4, symBinAddr: 0x10000E00C, symSize: 0x1C }
  - { offsetInCU: 0x18B59, offset: 0x18B59, size: 0x8, addend: 0x0, symName: __ZNSt3__119ostreambuf_iteratorIcNS_11char_traitsIcEEEC1B7v160006ERNS_13basic_ostreamIcS2_EE, symObjAddr: 0xC358, symBinAddr: 0x10000E270, symSize: 0x34 }
  - { offsetInCU: 0x18B91, offset: 0x18B91, size: 0x8, addend: 0x0, symName: __ZNKSt3__18ios_base5flagsB7v160006Ev, symObjAddr: 0xC38C, symBinAddr: 0x10000E2A4, symSize: 0x18 }
  - { offsetInCU: 0x18BB9, offset: 0x18BB9, size: 0x8, addend: 0x0, symName: __ZNKSt3__19basic_iosIcNS_11char_traitsIcEEE4fillB7v160006Ev, symObjAddr: 0xC3A4, symBinAddr: 0x10000E2BC, symSize: 0x64 }
  - { offsetInCU: 0x18BE1, offset: 0x18BE1, size: 0x8, addend: 0x0, symName: __ZNKSt3__119ostreambuf_iteratorIcNS_11char_traitsIcEEE6failedB7v160006Ev, symObjAddr: 0xC408, symBinAddr: 0x10000E320, symSize: 0x24 }
  - { offsetInCU: 0x18C07, offset: 0x18C07, size: 0x8, addend: 0x0, symName: __ZNSt3__19basic_iosIcNS_11char_traitsIcEEE8setstateB7v160006Ej, symObjAddr: 0xC42C, symBinAddr: 0x10000E344, symSize: 0x2C }
  - { offsetInCU: 0x18C3C, offset: 0x18C3C, size: 0x8, addend: 0x0, symName: __ZNKSt3__18ios_base5widthB7v160006Ev, symObjAddr: 0xC458, symBinAddr: 0x10000E370, symSize: 0x18 }
  - { offsetInCU: 0x18C64, offset: 0x18C64, size: 0x8, addend: 0x0, symName: __ZNSt3__115basic_streambufIcNS_11char_traitsIcEEE5sputnB7v160006EPKcl, symObjAddr: 0xC470, symBinAddr: 0x10000E388, symSize: 0x3C }
  - { offsetInCU: 0x18CA6, offset: 0x18CA6, size: 0x8, addend: 0x0, symName: __ZNSt3__112basic_stringIcNS_11char_traitsIcEENS_9allocatorIcEEEC1B7v160006Emc, symObjAddr: 0xC4AC, symBinAddr: 0x10000E3C4, symSize: 0x3C }
  - { offsetInCU: 0x18CEE, offset: 0x18CEE, size: 0x8, addend: 0x0, symName: __ZNSt3__18ios_base5widthB7v160006El, symObjAddr: 0xC4E8, symBinAddr: 0x10000E400, symSize: 0x2C }
  - { offsetInCU: 0x18D34, offset: 0x18D34, size: 0x8, addend: 0x0, symName: __ZNSt3__112basic_stringIcNS_11char_traitsIcEENS_9allocatorIcEEEC2B7v160006Emc, symObjAddr: 0xC514, symBinAddr: 0x10000E42C, symSize: 0x54 }
  - { offsetInCU: 0x18D7C, offset: 0x18D7C, size: 0x8, addend: 0x0, symName: __ZNSt3__119ostreambuf_iteratorIcNS_11char_traitsIcEEEC2B7v160006ERNS_13basic_ostreamIcS2_EE, symObjAddr: 0xC568, symBinAddr: 0x10000E480, symSize: 0x68 }
  - { offsetInCU: 0x18DB4, offset: 0x18DB4, size: 0x8, addend: 0x0, symName: __ZNKSt3__19basic_iosIcNS_11char_traitsIcEEE5rdbufB7v160006Ev, symObjAddr: 0xC5D0, symBinAddr: 0x10000E4E8, symSize: 0x24 }
  - { offsetInCU: 0x18DDC, offset: 0x18DDC, size: 0x8, addend: 0x0, symName: __ZNKSt3__18ios_base5rdbufB7v160006Ev, symObjAddr: 0xC5F4, symBinAddr: 0x10000E50C, symSize: 0x18 }
  - { offsetInCU: 0x18E02, offset: 0x18E02, size: 0x8, addend: 0x0, symName: __ZNSt3__111char_traitsIcE11eq_int_typeEii, symObjAddr: 0xC60C, symBinAddr: 0x10000E524, symSize: 0x28 }
  - { offsetInCU: 0x18E33, offset: 0x18E33, size: 0x8, addend: 0x0, symName: __ZNSt3__111char_traitsIcE3eofEv, symObjAddr: 0xC634, symBinAddr: 0x10000E54C, symSize: 0x8 }
  - { offsetInCU: 0x18E47, offset: 0x18E47, size: 0x8, addend: 0x0, symName: __ZNKSt3__19basic_iosIcNS_11char_traitsIcEEE5widenB7v160006Ec, symObjAddr: 0xC63C, symBinAddr: 0x10000E554, symSize: 0x8C }
  - { offsetInCU: 0x18EAB, offset: 0x18EAB, size: 0x8, addend: 0x0, symName: __ZNKSt3__15ctypeIcE5widenB7v160006Ec, symObjAddr: 0xC6F4, symBinAddr: 0x10000E60C, symSize: 0x38 }
  - { offsetInCU: 0x18EE0, offset: 0x18EE0, size: 0x8, addend: 0x0, symName: __ZNSt3__18ios_base8setstateB7v160006Ej, symObjAddr: 0xC72C, symBinAddr: 0x10000E644, symSize: 0x34 }
  - { offsetInCU: 0x18F17, offset: 0x18F17, size: 0x8, addend: 0x0, symName: __ZNKSt3__16vectorI10TransitionNS_9allocatorIS1_EEE11__make_iterB7v160006EPKS1_, symObjAddr: 0xC784, symBinAddr: 0x10000E69C, symSize: 0x34 }
  - { offsetInCU: 0x18F4C, offset: 0x18F4C, size: 0x8, addend: 0x0, symName: __ZNSt3__111__wrap_iterIPK10TransitionEC1B7v160006EPKvS3_, symObjAddr: 0xC7B8, symBinAddr: 0x10000E6D0, symSize: 0x3C }
  - { offsetInCU: 0x18F92, offset: 0x18F92, size: 0x8, addend: 0x0, symName: __ZNSt3__111__wrap_iterIPK10TransitionEC2B7v160006EPKvS3_, symObjAddr: 0xC7F4, symBinAddr: 0x10000E70C, symSize: 0x24 }
  - { offsetInCU: 0x18FD8, offset: 0x18FD8, size: 0x8, addend: 0x0, symName: __ZNKSt3__111__wrap_iterIPK10TransitionE4baseB7v160006Ev, symObjAddr: 0xC860, symBinAddr: 0x10000E778, symSize: 0x18 }
  - { offsetInCU: 0x19088, offset: 0x19088, size: 0x8, addend: 0x0, symName: __ZNKSt3__113basic_istreamIcNS_11char_traitsIcEEE6sentrycvbB7v160006Ev, symObjAddr: 0xC878, symBinAddr: 0x10000E790, symSize: 0x1C }
  - { offsetInCU: 0x190AE, offset: 0x190AE, size: 0x8, addend: 0x0, symName: __ZNSt3__112basic_stringIcNS_11char_traitsIcEENS_9allocatorIcEEE5clearB7v160006Ev, symObjAddr: 0xC894, symBinAddr: 0x10000E7AC, symSize: 0x9C }
  - { offsetInCU: 0x190D6, offset: 0x190D6, size: 0x8, addend: 0x0, symName: __ZNKSt3__112basic_stringIcNS_11char_traitsIcEENS_9allocatorIcEEE8max_sizeB7v160006Ev, symObjAddr: 0xC930, symBinAddr: 0x10000E848, symSize: 0xAC }
  - { offsetInCU: 0x19129, offset: 0x19129, size: 0x8, addend: 0x0, symName: __ZNSt3__115basic_streambufIcNS_11char_traitsIcEEE5sgetcB7v160006Ev, symObjAddr: 0xC9DC, symBinAddr: 0x10000E8F4, symSize: 0x70 }
  - { offsetInCU: 0x1914F, offset: 0x1914F, size: 0x8, addend: 0x0, symName: __ZNSt3__111char_traitsIcE12to_char_typeEi, symObjAddr: 0xCA4C, symBinAddr: 0x10000E964, symSize: 0x18 }
  - { offsetInCU: 0x19172, offset: 0x19172, size: 0x8, addend: 0x0, symName: __ZNKSt3__15ctypeIcE2isB7v160006Ejc, symObjAddr: 0xCA64, symBinAddr: 0x10000E97C, symSize: 0x7C }
  - { offsetInCU: 0x191B6, offset: 0x191B6, size: 0x8, addend: 0x0, symName: __ZNSt3__115basic_streambufIcNS_11char_traitsIcEEE6sbumpcB7v160006Ev, symObjAddr: 0xCAE0, symBinAddr: 0x10000E9F8, symSize: 0x78 }
  - { offsetInCU: 0x191DC, offset: 0x191DC, size: 0x8, addend: 0x0, symName: __ZNSt3__18ios_base18__setstate_nothrowB7v160006Ej, symObjAddr: 0xCB58, symBinAddr: 0x10000EA70, symSize: 0x64 }
  - { offsetInCU: 0x19211, offset: 0x19211, size: 0x8, addend: 0x0, symName: __ZNKSt3__19basic_iosIcNS_11char_traitsIcEEE10exceptionsB7v160006Ev, symObjAddr: 0xCBBC, symBinAddr: 0x10000EAD4, symSize: 0x24 }
  - { offsetInCU: 0x19237, offset: 0x19237, size: 0x8, addend: 0x0, symName: __ZNSt3__111char_traitsIcE6assignERcRKc, symObjAddr: 0xCBF0, symBinAddr: 0x10000EB08, symSize: 0x24 }
  - { offsetInCU: 0x19268, offset: 0x19268, size: 0x8, addend: 0x0, symName: __ZNSt3__112basic_stringIcNS_11char_traitsIcEENS_9allocatorIcEEE16__set_short_sizeB7v160006Em, symObjAddr: 0xCC14, symBinAddr: 0x10000EB2C, symSize: 0x78 }
  - { offsetInCU: 0x1929D, offset: 0x1929D, size: 0x8, addend: 0x0, symName: __ZNKSt3__112basic_stringIcNS_11char_traitsIcEENS_9allocatorIcEEE7__allocB7v160006Ev, symObjAddr: 0xCC8C, symBinAddr: 0x10000EBA4, symSize: 0x24 }
  - { offsetInCU: 0x192C3, offset: 0x192C3, size: 0x8, addend: 0x0, symName: __ZNSt3__114numeric_limitsImE3maxB7v160006Ev, symObjAddr: 0xCCB0, symBinAddr: 0x10000EBC8, symSize: 0x14 }
  - { offsetInCU: 0x192D7, offset: 0x192D7, size: 0x8, addend: 0x0, symName: __ZNKSt3__117__compressed_pairINS_12basic_stringIcNS_11char_traitsIcEENS_9allocatorIcEEE5__repES5_E6secondB7v160006Ev, symObjAddr: 0xCCC4, symBinAddr: 0x10000EBDC, symSize: 0x24 }
  - { offsetInCU: 0x192FD, offset: 0x192FD, size: 0x8, addend: 0x0, symName: __ZNKSt3__122__compressed_pair_elemINS_9allocatorIcEELi1ELb1EE5__getB7v160006Ev, symObjAddr: 0xCCE8, symBinAddr: 0x10000EC00, symSize: 0x14 }
  - { offsetInCU: 0x19323, offset: 0x19323, size: 0x8, addend: 0x0, symName: __ZNSt3__123__libcpp_numeric_limitsImLb1EE3maxB7v160006Ev, symObjAddr: 0xCCFC, symBinAddr: 0x10000EC14, symSize: 0x8 }
  - { offsetInCU: 0x19337, offset: 0x19337, size: 0x8, addend: 0x0, symName: __ZNSt3__111char_traitsIcE11to_int_typeEc, symObjAddr: 0xCD04, symBinAddr: 0x10000EC1C, symSize: 0x14 }
  - { offsetInCU: 0x19359, offset: 0x19359, size: 0x8, addend: 0x0, symName: __Z7isasciii, symObjAddr: 0xCD18, symBinAddr: 0x10000EC30, symSize: 0x24 }
  - { offsetInCU: 0x19386, offset: 0x19386, size: 0x8, addend: 0x0, symName: __ZNKSt3__18ios_base10exceptionsB7v160006Ev, symObjAddr: 0xCD3C, symBinAddr: 0x10000EC54, symSize: 0x18 }
...
